---
triple:          'arm64-apple-darwin'
binary-path:     sm.out
relocations:
  - { offsetInCU: 0x18C6A, offset: 0x18C6A, size: 0x8, addend: 0x0, symName: __ZNSt3__124__put_character_sequenceB7v160006IcNS_11char_traitsIcEEEERNS_13basic_ostreamIT_T0_EES7_PKS4_m, symObjAddr: 0x27A8, symBinAddr: 0x1000041EC, symSize: 0x164 }
  - { offsetInCU: 0x20428, offset: 0x20428, size: 0x8, addend: 0x0, symName: __ZNSt3__120__throw_length_errorB7v160006EPKc, symObjAddr: 0x270C, symBinAddr: 0x100004150, symSize: 0x50 }
  - { offsetInCU: 0x20466, offset: 0x20466, size: 0x8, addend: 0x0, symName: __ZNSt3__116__pad_and_outputB7v160006IcNS_11char_traitsIcEEEENS_19ostreambuf_iteratorIT_T0_EES6_PKS4_S8_S8_RNS_8ios_baseES4_, symObjAddr: 0x290C, symBinAddr: 0x100004350, symSize: 0x194 }
  - { offsetInCU: 0x2111C, offset: 0x2111C, size: 0x8, addend: 0x0, symName: __ZSt28__throw_bad_array_new_lengthB7v160006v, symObjAddr: 0x2780, symBinAddr: 0x1000041C4, symSize: 0x28 }
  - { offsetInCU: 0x2117A, offset: 0x2117A, size: 0x8, addend: 0x0, symName: _nPts, symObjAddr: 0x2DB4, symBinAddr: 0x100030000, symSize: 0x0 }
  - { offsetInCU: 0x24375, offset: 0x24375, size: 0x8, addend: 0x0, symName: __Z25fakeRateAbsoluteStabilitydd, symObjAddr: 0x0, symBinAddr: 0x100001A44, symSize: 0xC }
  - { offsetInCU: 0x281F5, offset: 0x281F5, size: 0x8, addend: 0x0, symName: __Z14calcLog10gammaddddRNSt3__114basic_ofstreamIcNS_11char_traitsIcEEEEib, symObjAddr: 0xC, symBinAddr: 0x100001A50, symSize: 0x103C }
  - { offsetInCU: 0x2DCFC, offset: 0x2DCFC, size: 0x8, addend: 0x0, symName: __ZNKSt3__16vectorINS_4pairIddEENS_9allocatorIS2_EEE20__throw_length_errorB7v160006Ev, symObjAddr: 0x2AA0, symBinAddr: 0x1000044E4, symSize: 0x14 }
  - { offsetInCU: 0x2DD31, offset: 0x2DD31, size: 0x8, addend: 0x0, symName: __ZN6QedQcdD2Ev, symObjAddr: 0x2638, symBinAddr: 0x10000407C, symSize: 0xC0 }
  - { offsetInCU: 0x2E6FC, offset: 0x2E6FC, size: 0x8, addend: 0x0, symName: __ZN13StandardModelD1Ev, symObjAddr: 0x1048, symBinAddr: 0x100002A8C, symSize: 0xA8 }
  - { offsetInCU: 0x2F0CE, offset: 0x2F0CE, size: 0x8, addend: 0x0, symName: __Z14calcLog10gammadddd, symObjAddr: 0x10F0, symBinAddr: 0x100002B34, symSize: 0x100 }
  - { offsetInCU: 0x2F1CA, offset: 0x2F1CA, size: 0x8, addend: 0x0, symName: __ZNSt3__114basic_ofstreamIcNS_11char_traitsIcEEEC1EPKcj, symObjAddr: 0x11F0, symBinAddr: 0x100002C34, symSize: 0x108 }
  - { offsetInCU: 0x2F2AD, offset: 0x2F2AD, size: 0x8, addend: 0x0, symName: __ZNSt3__114basic_ofstreamIcNS_11char_traitsIcEEED1Ev, symObjAddr: 0x12F8, symBinAddr: 0x100002D3C, symSize: 0x58 }
  - { offsetInCU: 0x2F59D, offset: 0x2F59D, size: 0x8, addend: 0x0, symName: _main, symObjAddr: 0x1350, symBinAddr: 0x100002D94, symSize: 0x11C8 }
  - { offsetInCU: 0x3449C, offset: 0x3449C, size: 0x8, addend: 0x0, symName: __ZNSt3__114basic_ofstreamIcNS_11char_traitsIcEEEC1ERKNS_12basic_stringIcS2_NS_9allocatorIcEEEEj, symObjAddr: 0x2518, symBinAddr: 0x100003F5C, symSize: 0x114 }
  - { offsetInCU: 0x3468E, offset: 0x3468E, size: 0x8, addend: 0x0, symName: __ZNKSt3__112basic_stringIcNS_11char_traitsIcEENS_9allocatorIcEEE20__throw_length_errorB7v160006Ev, symObjAddr: 0x26F8, symBinAddr: 0x10000413C, symSize: 0x14 }
  - { offsetInCU: 0x346B8, offset: 0x346B8, size: 0x8, addend: 0x0, symName: __ZNSt3__120__throw_length_errorB7v160006EPKc, symObjAddr: 0x270C, symBinAddr: 0x100004150, symSize: 0x50 }
  - { offsetInCU: 0x346C3, offset: 0x346C3, size: 0x8, addend: 0x0, symName: __ZNSt12length_errorC1B7v160006EPKc, symObjAddr: 0x275C, symBinAddr: 0x1000041A0, symSize: 0x24 }
  - { offsetInCU: 0x6814, offset: 0x3B21A, size: 0x8, addend: 0x0, symName: __ZNSt3__124__put_character_sequenceIcNS_11char_traitsIcEEEERNS_13basic_ostreamIT_T0_EES7_PKS4_m, symObjAddr: 0x33F0, symBinAddr: 0x1000078DC, symSize: 0x168 }
  - { offsetInCU: 0x76F7, offset: 0x3C0FD, size: 0x8, addend: 0x0, symName: '__ZNSt3__16__sortIRZN5Elvas13lnPhiC2LnRinvERKdRNS_6vectorINS_4pairIddEENS_9allocatorIS6_EEEEE3$_0PS6_EEvT0_SE_T_', symObjAddr: 0x1E14, symBinAddr: 0x100006300, symSize: 0x4E4 }
  - { offsetInCU: 0x8727, offset: 0x3D12D, size: 0x8, addend: 0x0, symName: '__ZNSt3__16__sortIRZN5Elvas10getLnGammaERNS_6vectorINS_4pairIddEENS_9allocatorIS4_EEEERKdSA_E3$_2PS4_EEvT0_SE_T_', symObjAddr: 0x27CC, symBinAddr: 0x100006CB8, symSize: 0x774 }
  - { offsetInCU: 0xABA6, offset: 0x3F5AC, size: 0x8, addend: 0x0, symName: '__ZNSt3__17__sort5IRZN5Elvas13lnPhiC2LnRinvERKdRNS_6vectorINS_4pairIddEENS_9allocatorIS6_EEEEE3$_0PS6_EEjT0_SE_SE_SE_SE_T_', symObjAddr: 0x2400, symBinAddr: 0x1000068EC, symSize: 0x1C0 }
  - { offsetInCU: 0xB279, offset: 0x3FC7F, size: 0x8, addend: 0x0, symName: '__ZNSt3__17__sort3IRZN5Elvas13lnPhiC2LnRinvERKdRNS_6vectorINS_4pairIddEENS_9allocatorIS6_EEEEE3$_0PS6_EEjT0_SE_SE_T_', symObjAddr: 0x22F8, symBinAddr: 0x1000067E4, symSize: 0x108 }
  - { offsetInCU: 0xB2E7, offset: 0x3FCED, size: 0x8, addend: 0x0, symName: '__ZNSt3__17__sort3IRZN5Elvas13lnPhiC2LnRinvERKdRNS_6vectorINS_4pairIddEENS_9allocatorIS6_EEEEE3$_0PS6_EEjT0_SE_SE_T_', symObjAddr: 0x22F8, symBinAddr: 0x1000067E4, symSize: 0x108 }
  - { offsetInCU: 0xB6A7, offset: 0x400AD, size: 0x8, addend: 0x0, symName: '__ZNSt3__127__insertion_sort_incompleteIRZN5Elvas13lnPhiC2LnRinvERKdRNS_6vectorINS_4pairIddEENS_9allocatorIS6_EEEEE3$_0PS6_EEbT0_SE_T_', symObjAddr: 0x25C0, symBinAddr: 0x100006AAC, symSize: 0x1F4 }
  - { offsetInCU: 0xBD6C, offset: 0x40772, size: 0x8, addend: 0x0, symName: '__ZNSt3__17__sort4IRZN5Elvas10getLnGammaERNS_6vectorINS_4pairIddEENS_9allocatorIS4_EEEERKdSA_E3$_2PS4_EEjT0_SE_SE_SE_T_', symObjAddr: 0x2F40, symBinAddr: 0x10000742C, symSize: 0x174 }
  - { offsetInCU: 0xBDE9, offset: 0x407EF, size: 0x8, addend: 0x0, symName: '__ZNSt3__17__sort4IRZN5Elvas10getLnGammaERNS_6vectorINS_4pairIddEENS_9allocatorIS4_EEEERKdSA_E3$_2PS4_EEjT0_SE_SE_SE_T_', symObjAddr: 0x2F40, symBinAddr: 0x10000742C, symSize: 0x174 }
  - { offsetInCU: 0xBE29, offset: 0x4082F, size: 0x8, addend: 0x0, symName: '__ZNSt3__17__sort4IRZN5Elvas10getLnGammaERNS_6vectorINS_4pairIddEENS_9allocatorIS4_EEEERKdSA_E3$_2PS4_EEjT0_SE_SE_SE_T_', symObjAddr: 0x2F40, symBinAddr: 0x10000742C, symSize: 0x174 }
  - { offsetInCU: 0xC46D, offset: 0x40E73, size: 0x8, addend: 0x0, symName: '__ZNSt3__127__insertion_sort_incompleteIRZN5Elvas10getLnGammaERNS_6vectorINS_4pairIddEENS_9allocatorIS4_EEEERKdSA_E3$_2PS4_EEbT0_SE_T_', symObjAddr: 0x30B4, symBinAddr: 0x1000075A0, symSize: 0x33C }
  - { offsetInCU: 0xD22E, offset: 0x41C34, size: 0x8, addend: 0x0, symName: __ZNSt3__116__pad_and_outputIcNS_11char_traitsIcEEEENS_19ostreambuf_iteratorIT_T0_EES6_PKS4_S8_S8_RNS_8ios_baseES4_, symObjAddr: 0x3558, symBinAddr: 0x100007A44, symSize: 0x18C }
  - { offsetInCU: 0x103BE, offset: 0x44DC4, size: 0x8, addend: 0x0, symName: __ZN5Elvas13lnPhiC2LnRinvERKdRNSt3__16vectorINS2_4pairIddEENS2_9allocatorIS5_EEEE, symObjAddr: 0x0, symBinAddr: 0x1000044F8, symSize: 0x274 }
  - { offsetInCU: 0x10C94, offset: 0x4569A, size: 0x8, addend: 0x0, symName: __ZN6NTools13interpolateL2INSt3__111__wrap_iterIPNS1_4pairIddEEEEEEdT_S7_RKdRKb, symObjAddr: 0x278, symBinAddr: 0x100004770, symSize: 0x2D4 }
  - { offsetInCU: 0x113FC, offset: 0x45E02, size: 0x8, addend: 0x0, symName: __ZN5Elvas10ElvasErrorD1Ev, symObjAddr: 0x274, symBinAddr: 0x10000476C, symSize: 0x4 }
  - { offsetInCU: 0x1141F, offset: 0x45E25, size: 0x8, addend: 0x0, symName: __ZN5Elvas10ElvasErrorD1Ev, symObjAddr: 0x274, symBinAddr: 0x10000476C, symSize: 0x4 }
  - { offsetInCU: 0x1157A, offset: 0x45F80, size: 0x8, addend: 0x0, symName: __ZN5Elvas10getLnGammaERNSt3__16vectorINS0_4pairIddEENS0_9allocatorIS3_EEEERKdS9_, symObjAddr: 0x54C, symBinAddr: 0x100004A44, symSize: 0x304 }
  - { offsetInCU: 0x124CE, offset: 0x46ED4, size: 0x8, addend: 0x0, symName: __ZN6NTools13integrateSIMPINSt3__111__wrap_iterIPdEEEEdT_S5_RKdi, symObjAddr: 0x850, symBinAddr: 0x100004D48, symSize: 0x1BC }
  - { offsetInCU: 0x12B30, offset: 0x47536, size: 0x8, addend: 0x0, symName: __ZN5Elvas8scalarQCERKdS1_S1_, symObjAddr: 0xA0C, symBinAddr: 0x100004F04, symSize: 0x1A4 }
  - { offsetInCU: 0x12C36, offset: 0x4763C, size: 0x8, addend: 0x0, symName: __ZN5Elvas9fermionQCERKdS1_S1_, symObjAddr: 0xBB0, symBinAddr: 0x1000050A8, symSize: 0x1A0 }
  - { offsetInCU: 0x12D1C, offset: 0x47722, size: 0x8, addend: 0x0, symName: __ZN5Elvas7gaugeQCERKdS1_S1_, symObjAddr: 0xD50, symBinAddr: 0x100005248, symSize: 0x350 }
  - { offsetInCU: 0x13070, offset: 0x47A76, size: 0x8, addend: 0x0, symName: __ZN5Elvas8PrintBoxC2ERNSt3__113basic_ostreamIcNS1_11char_traitsIcEEEE, symObjAddr: 0x10A0, symBinAddr: 0x100005598, symSize: 0x188 }
  - { offsetInCU: 0x136F6, offset: 0x480FC, size: 0x8, addend: 0x0, symName: __ZN5Elvas8PrintBoxC1ERNSt3__113basic_ostreamIcNS1_11char_traitsIcEEEE, symObjAddr: 0x1228, symBinAddr: 0x100005720, symSize: 0x4 }
  - { offsetInCU: 0x13721, offset: 0x48127, size: 0x8, addend: 0x0, symName: __ZN5Elvas8PrintBoxC1ERNSt3__113basic_ostreamIcNS1_11char_traitsIcEEEE, symObjAddr: 0x1228, symBinAddr: 0x100005720, symSize: 0x4 }
  - { offsetInCU: 0x1373C, offset: 0x48142, size: 0x8, addend: 0x0, symName: __ZN5Elvas8PrintBoxD2Ev, symObjAddr: 0x122C, symBinAddr: 0x100005724, symSize: 0x16C }
  - { offsetInCU: 0x13D71, offset: 0x48777, size: 0x8, addend: 0x0, symName: __ZN5Elvas8PrintBoxD1Ev, symObjAddr: 0x13A4, symBinAddr: 0x100005890, symSize: 0x4 }
  - { offsetInCU: 0x13D93, offset: 0x48799, size: 0x8, addend: 0x0, symName: __ZN5Elvas8PrintBoxD1Ev, symObjAddr: 0x13A4, symBinAddr: 0x100005890, symSize: 0x4 }
  - { offsetInCU: 0x13DD3, offset: 0x487D9, size: 0x8, addend: 0x0, symName: __ZN5Elvas8PrintBox8printStrERKNSt3__112basic_stringIcNS1_11char_traitsIcEENS1_9allocatorIcEEEE, symObjAddr: 0x13A8, symBinAddr: 0x100005894, symSize: 0x2A0 }
  - { offsetInCU: 0x14B18, offset: 0x4951E, size: 0x8, addend: 0x0, symName: __ZN5Elvas8PrintBox9emptyLineEi, symObjAddr: 0x1648, symBinAddr: 0x100005B34, symSize: 0x1AC }
  - { offsetInCU: 0x152DB, offset: 0x49CE1, size: 0x8, addend: 0x0, symName: __ZN5Elvas11printHeaderERNSt3__113basic_ostreamIcNS0_11char_traitsIcEEEE, symObjAddr: 0x17F4, symBinAddr: 0x100005CE0, symSize: 0x60C }
  - { offsetInCU: 0x18394, offset: 0x4CD9A, size: 0x8, addend: 0x0, symName: __ZN5Elvas10ElvasErrorD0Ev, symObjAddr: 0x1E00, symBinAddr: 0x1000062EC, symSize: 0x14 }
  - { offsetInCU: 0x1849C, offset: 0x4CEA2, size: 0x8, addend: 0x0, symName: __ZN6NTools11NtoolsErrorD1Ev, symObjAddr: 0x27B4, symBinAddr: 0x100006CA0, symSize: 0x4 }
  - { offsetInCU: 0x184BF, offset: 0x4CEC5, size: 0x8, addend: 0x0, symName: __ZN6NTools11NtoolsErrorD1Ev, symObjAddr: 0x27B4, symBinAddr: 0x100006CA0, symSize: 0x4 }
  - { offsetInCU: 0x184F4, offset: 0x4CEFA, size: 0x8, addend: 0x0, symName: __ZN6NTools11NtoolsErrorD0Ev, symObjAddr: 0x27B8, symBinAddr: 0x100006CA4, symSize: 0x14 }
  - { offsetInCU: 0x26, offset: 0x4D1BC, size: 0x8, addend: 0x0, symName: __ZN8LoopTool4refBERNSt3__17complexIdEE, symObjAddr: 0x0, symBinAddr: 0x100007BD0, symSize: 0x128 }
  - { offsetInCU: 0x10EB, offset: 0x4E281, size: 0x8, addend: 0x0, symName: __ZNSt3__1dvB7v160006IdEENS_7complexIT_EERKS3_S5_, symObjAddr: 0x1994, symBinAddr: 0x100009564, symSize: 0x288 }
  - { offsetInCU: 0x1423, offset: 0x4E5B9, size: 0x8, addend: 0x0, symName: __ZNSt3__1mlB7v160006IdEENS_7complexIT_EERKS3_S5_, symObjAddr: 0x128, symBinAddr: 0x100007CF8, symSize: 0x1D8 }
  - { offsetInCU: 0x150C, offset: 0x4E6A2, size: 0x8, addend: 0x0, symName: __ZNSt3__1mlB7v160006IdEENS_7complexIT_EERKS3_S5_, symObjAddr: 0x128, symBinAddr: 0x100007CF8, symSize: 0x1D8 }
  - { offsetInCU: 0x17EB, offset: 0x4E981, size: 0x8, addend: 0x0, symName: __ZNSt3__14sqrtB7v160006IdEENS_7complexIT_EERKS3_, symObjAddr: 0x4F4, symBinAddr: 0x1000080C4, symSize: 0x1E4 }
  - { offsetInCU: 0x1A8D, offset: 0x4EC23, size: 0x8, addend: 0x0, symName: __ZN8LoopTool4reB0Edddd, symObjAddr: 0x300, symBinAddr: 0x100007ED0, symSize: 0x1F4 }
  - { offsetInCU: 0x1D80, offset: 0x4EF16, size: 0x8, addend: 0x0, symName: __ZN8LoopTool4reB1Edddd, symObjAddr: 0x6D8, symBinAddr: 0x1000082A8, symSize: 0x270 }
  - { offsetInCU: 0x3F07, offset: 0x5109D, size: 0x8, addend: 0x0, symName: __ZN8LoopTool4refBERNSt3__17complexIdEE, symObjAddr: 0x0, symBinAddr: 0x100007BD0, symSize: 0x128 }
  - { offsetInCU: 0x42E6, offset: 0x5147C, size: 0x8, addend: 0x0, symName: __ZN8LoopTool1IEddd, symObjAddr: 0x948, symBinAddr: 0x100008518, symSize: 0x94 }
  - { offsetInCU: 0x432D, offset: 0x514C3, size: 0x8, addend: 0x0, symName: __ZN8LoopTool2f1Ed, symObjAddr: 0x9DC, symBinAddr: 0x1000085AC, symSize: 0x8C }
  - { offsetInCU: 0x4373, offset: 0x51509, size: 0x8, addend: 0x0, symName: __ZN8LoopTool2f2Ed, symObjAddr: 0xA68, symBinAddr: 0x100008638, symSize: 0x8C }
  - { offsetInCU: 0x43B9, offset: 0x5154F, size: 0x8, addend: 0x0, symName: __ZN8LoopTool2f3Ed, symObjAddr: 0xAF4, symBinAddr: 0x1000086C4, symSize: 0x98 }
  - { offsetInCU: 0x43FF, offset: 0x51595, size: 0x8, addend: 0x0, symName: __ZN8LoopTool2f4Ed, symObjAddr: 0xB8C, symBinAddr: 0x10000875C, symSize: 0xA0 }
  - { offsetInCU: 0x4445, offset: 0x515DB, size: 0x8, addend: 0x0, symName: __ZN8LoopTool2f5Edd, symObjAddr: 0xC2C, symBinAddr: 0x1000087FC, symSize: 0x224 }
  - { offsetInCU: 0x44BC, offset: 0x51652, size: 0x8, addend: 0x0, symName: __ZN8LoopTool2f6Edd, symObjAddr: 0xE50, symBinAddr: 0x100008A20, symSize: 0x234 }
  - { offsetInCU: 0x4533, offset: 0x516C9, size: 0x8, addend: 0x0, symName: __ZN8LoopTool2f7Edd, symObjAddr: 0x1084, symBinAddr: 0x100008C54, symSize: 0x1F8 }
  - { offsetInCU: 0x45AA, offset: 0x51740, size: 0x8, addend: 0x0, symName: __ZN8LoopTool2f8Edd, symObjAddr: 0x127C, symBinAddr: 0x100008E4C, symSize: 0x1B0 }
  - { offsetInCU: 0x4621, offset: 0x517B7, size: 0x8, addend: 0x0, symName: __ZN8LoopTool2F1Ed, symObjAddr: 0x142C, symBinAddr: 0x100008FFC, symSize: 0x4C }
  - { offsetInCU: 0x4648, offset: 0x517DE, size: 0x8, addend: 0x0, symName: __ZN8LoopTool2F2Ed, symObjAddr: 0x1478, symBinAddr: 0x100009048, symSize: 0x78 }
  - { offsetInCU: 0x468E, offset: 0x51824, size: 0x8, addend: 0x0, symName: __ZN8LoopTool2F3Ed, symObjAddr: 0x14F0, symBinAddr: 0x1000090C0, symSize: 0x7C }
  - { offsetInCU: 0x46D4, offset: 0x5186A, size: 0x8, addend: 0x0, symName: __ZN8LoopTool2F4Ed, symObjAddr: 0x156C, symBinAddr: 0x10000913C, symSize: 0x50 }
  - { offsetInCU: 0x471B, offset: 0x518B1, size: 0x8, addend: 0x0, symName: __ZN8LoopTool2F5Ed, symObjAddr: 0x15BC, symBinAddr: 0x10000918C, symSize: 0x78 }
  - { offsetInCU: 0x4763, offset: 0x518F9, size: 0x8, addend: 0x0, symName: __ZN8LoopTool2F6Ed, symObjAddr: 0x1634, symBinAddr: 0x100009204, symSize: 0x68 }
  - { offsetInCU: 0x47AB, offset: 0x51941, size: 0x8, addend: 0x0, symName: __ZN8LoopTool2F7Ed, symObjAddr: 0x169C, symBinAddr: 0x10000926C, symSize: 0x84 }
  - { offsetInCU: 0x47F3, offset: 0x51989, size: 0x8, addend: 0x0, symName: __ZN8LoopTool2F8Edd, symObjAddr: 0x1720, symBinAddr: 0x1000092F0, symSize: 0x138 }
  - { offsetInCU: 0x486F, offset: 0x51A05, size: 0x8, addend: 0x0, symName: __ZN8LoopTool2F9Edd, symObjAddr: 0x1858, symBinAddr: 0x100009428, symSize: 0x13C }
  - { offsetInCU: 0x25F97, offset: 0x779F6, size: 0x8, addend: 0x0, symName: __ZN5Eigen8internal28conditional_aligned_new_autoIdLb1EEEPT_m, symObjAddr: 0xD08C, symBinAddr: 0x10001686C, symSize: 0x68 }
  - { offsetInCU: 0x2604F, offset: 0x77AAE, size: 0x8, addend: 0x0, symName: __ZN5Eigen8internal28conditional_aligned_new_autoIiLb1EEEPT_m, symObjAddr: 0xD0F4, symBinAddr: 0x1000168D4, symSize: 0x68 }
  - { offsetInCU: 0x27001, offset: 0x78A60, size: 0x8, addend: 0x0, symName: __ZN5Eigen8internal17resize_if_allowedINS_6MatrixIdLin1ELin1ELi0ELin1ELin1EEES3_ddEEvRT_RKT0_RKNS0_9assign_opIT1_T2_EE, symObjAddr: 0xD15C, symBinAddr: 0x10001693C, symSize: 0xB8 }
  - { offsetInCU: 0x2B694, offset: 0x7D0F3, size: 0x8, addend: 0x0, symName: __ZN5Eigen8internal26call_dense_assignment_loopINS_6MatrixIdLi3ELi1ELi0ELi3ELi1EEENS_13CwiseBinaryOpINS0_13scalar_sum_opIddEEKNS_7ProductINS_15DiagonalWrapperIKNS4_INS0_17scalar_product_opIddEEKNS_14CwiseNullaryOpINS0_18scalar_constant_opIdEEKS3_EESE_EEEES3_Li1EEEKNS7_ISJ_NS4_IS6_KNS4_IS6_KNS4_IS6_KNS4_IS6_KNS7_INS2_IdLi3ELi3ELi0ELi3ELi3EEES3_Li0EEEKNS7_INS7_INS8_ISE_EESM_Li1EEES3_Li0EEEEEKNS7_ISP_NS4_INS0_20scalar_difference_opIddEEKNS4_ISA_SE_SG_EESI_EELi1EEEEES11_EES11_EELi1EEEEENS0_9assign_opIddEEEEvRT_RKT0_RKT1_, symObjAddr: 0xD814, symBinAddr: 0x100016C74, symSize: 0x2B8 }
  - { offsetInCU: 0x2F6D8, offset: 0x81137, size: 0x8, addend: 0x0, symName: __ZN5Eigen8internal26call_dense_assignment_loopINS_6MatrixIdLi3ELi3ELi0ELi3ELi3EEENS_13CwiseBinaryOpINS0_17scalar_product_opIddEEKNS_14CwiseNullaryOpINS0_18scalar_constant_opIdEEKS3_EEKNS4_INS0_13scalar_sum_opIddEEKNS4_IS6_SA_SC_EEKNS4_IS6_SC_KNS4_ISE_KNS4_ISE_KNS_7ProductIS3_S3_Li0EEESJ_EEKNS4_IS6_SC_KNS4_ISE_KNS4_ISE_KNSH_ISI_S3_Li0EEEKNS4_IS6_SC_SA_EEEESA_EEEEEEEEEEEENS0_9assign_opIddEEEEvRT_RKT0_RKT1_, symObjAddr: 0xE644, symBinAddr: 0x100017AA4, symSize: 0x3D8 }
  - { offsetInCU: 0x32153, offset: 0x83BB2, size: 0x8, addend: 0x0, symName: __ZN5Eigen8internal26call_dense_assignment_loopINS_6MatrixIdLi3ELi3ELi0ELi3ELi3EEENS_13CwiseBinaryOpINS0_17scalar_product_opIddEEKNS_14CwiseNullaryOpINS0_18scalar_constant_opIdEEKS3_EEKNS4_INS0_13scalar_sum_opIddEEKNS4_IS6_SA_SC_EEKNS4_ISE_KNS4_ISE_KNS_7ProductIS3_S3_Li0EEESJ_EEKNS4_IS6_SC_KNS4_ISE_KNS4_ISE_KNSH_ISI_S3_Li0EEEKNS4_IS6_SC_SA_EEEESA_EEEEEEEEEENS0_9assign_opIddEEEEvRT_RKT0_RKT1_, symObjAddr: 0xEC64, symBinAddr: 0x1000180C4, symSize: 0x4F0 }
  - { offsetInCU: 0x36756, offset: 0x881B5, size: 0x8, addend: 0x0, symName: __ZN5Eigen8internal26call_dense_assignment_loopINS_6MatrixIdLi3ELi3ELi0ELi3ELi3EEENS_13CwiseBinaryOpINS0_17scalar_product_opIddEEKNS_14CwiseNullaryOpINS0_18scalar_constant_opIdEEKS3_EEKNS4_INS0_13scalar_sum_opIddEEKNS4_ISE_KNS4_ISE_KNS4_IS6_SA_SC_EEKNS_7ProductIS3_S3_Li0EEEEESJ_EEKNS4_IS6_SC_KNS4_ISE_KNS4_ISE_KNSH_ISI_S3_Li0EEEKNS4_IS6_SC_SA_EEEESA_EEEEEEEENS0_9assign_opIddEEEEvRT_RKT0_RKT1_, symObjAddr: 0xF154, symBinAddr: 0x1000185B4, symSize: 0x4F8 }
  - { offsetInCU: 0x3CF90, offset: 0x8E9EF, size: 0x8, addend: 0x0, symName: __ZN5Eigen8internal26call_dense_assignment_loopINS_6MatrixIdLi3ELi3ELi0ELi3ELi3EEENS_13CwiseBinaryOpINS0_20scalar_difference_opIddEEKS3_KNS4_INS0_13scalar_sum_opIddEEKNS4_IS9_KNS4_IS9_KNS_7ProductINS4_INS0_17scalar_product_opIddEEKNS_14CwiseNullaryOpINS0_18scalar_constant_opIdEES7_EES7_EES3_Li0EEEKNS4_ISC_S7_SH_EEEESK_EEKSI_EEEENS0_9assign_opIddEEEEvRT_RKT0_RKT1_, symObjAddr: 0x1000C, symBinAddr: 0x10001946C, symSize: 0x3F0 }
  - { offsetInCU: 0x10E1D0, offset: 0x15FC2F, size: 0x8, addend: 0x0, symName: __ZNSt3__14endlB7v160006IcNS_11char_traitsIcEEEERNS_13basic_ostreamIT_T0_EES7_, symObjAddr: 0x3F54, symBinAddr: 0x10000D740, symSize: 0x90 }
  - { offsetInCU: 0x10E336, offset: 0x15FD95, size: 0x8, addend: 0x0, symName: __ZNSt3__125__throw_bad_function_callB7v160006Ev, symObjAddr: 0xD7C8, symBinAddr: 0x100016C28, symSize: 0x34 }
  - { offsetInCU: 0x112C37, offset: 0x164696, size: 0x8, addend: 0x0, symName: __ZN4MSSM7applyBCEv, symObjAddr: 0x29F0, symBinAddr: 0x10000C1DC, symSize: 0x8F4 }
  - { offsetInCU: 0x112C5F, offset: 0x1646BE, size: 0x8, addend: 0x0, symName: __MergedGlobals, symObjAddr: 0x10522F0, symBinAddr: 0x100030010, symSize: 0x0 }
  - { offsetInCU: 0x112C79, offset: 0x1646D8, size: 0x8, addend: 0x0, symName: __MergedGlobals, symObjAddr: 0x10522F0, symBinAddr: 0x100030010, symSize: 0x0 }
  - { offsetInCU: 0x112C93, offset: 0x1646F2, size: 0x8, addend: 0x0, symName: __MergedGlobals, symObjAddr: 0x10522F0, symBinAddr: 0x100030010, symSize: 0x0 }
  - { offsetInCU: 0x112CAD, offset: 0x16470C, size: 0x8, addend: 0x0, symName: __MergedGlobals, symObjAddr: 0x10522F0, symBinAddr: 0x100030010, symSize: 0x0 }
  - { offsetInCU: 0x112CC7, offset: 0x164726, size: 0x8, addend: 0x0, symName: __MergedGlobals, symObjAddr: 0x10522F0, symBinAddr: 0x100030010, symSize: 0x0 }
  - { offsetInCU: 0x112CE1, offset: 0x164740, size: 0x8, addend: 0x0, symName: __MergedGlobals, symObjAddr: 0x10522F0, symBinAddr: 0x100030010, symSize: 0x0 }
  - { offsetInCU: 0x112D22, offset: 0x164781, size: 0x8, addend: 0x0, symName: __MergedGlobals, symObjAddr: 0x10522F0, symBinAddr: 0x100030010, symSize: 0x0 }
  - { offsetInCU: 0x112D3C, offset: 0x16479B, size: 0x8, addend: 0x0, symName: __MergedGlobals, symObjAddr: 0x10522F0, symBinAddr: 0x100030010, symSize: 0x0 }
  - { offsetInCU: 0x112D55, offset: 0x1647B4, size: 0x8, addend: 0x0, symName: __MergedGlobals, symObjAddr: 0x10522F0, symBinAddr: 0x100030010, symSize: 0x0 }
  - { offsetInCU: 0x11A629, offset: 0x16C088, size: 0x8, addend: 0x0, symName: __ZN4MSSM14matchSMGauginoERK9SMGauginob, symObjAddr: 0x3970, symBinAddr: 0x10000D15C, symSize: 0x4F8 }
  - { offsetInCU: 0x11A651, offset: 0x16C0B0, size: 0x8, addend: 0x0, symName: __MergedGlobals.198, symObjAddr: 0x10532E0, symBinAddr: 0x100031000, symSize: 0x0 }
  - { offsetInCU: 0x11DB09, offset: 0x16F568, size: 0x8, addend: 0x0, symName: __ZN4MSSM12calcphysParsEv, symObjAddr: 0x442C, symBinAddr: 0x10000DC18, symSize: 0x67C }
  - { offsetInCU: 0x11DB4B, offset: 0x16F5AA, size: 0x8, addend: 0x0, symName: __MergedGlobals, symObjAddr: 0x10522F0, symBinAddr: 0x100030010, symSize: 0x0 }
  - { offsetInCU: 0x11EC5A, offset: 0x1706B9, size: 0x8, addend: 0x0, symName: __ZN4MSSM18thresholdSMGauginoERK9SMGauginoRS0_, symObjAddr: 0x413C, symBinAddr: 0x10000D928, symSize: 0x2F0 }
  - { offsetInCU: 0x11EC82, offset: 0x1706E1, size: 0x8, addend: 0x0, symName: __MergedGlobals, symObjAddr: 0x10522F0, symBinAddr: 0x100030010, symSize: 0x0 }
  - { offsetInCU: 0x11EC9C, offset: 0x1706FB, size: 0x8, addend: 0x0, symName: __MergedGlobals, symObjAddr: 0x10522F0, symBinAddr: 0x100030010, symSize: 0x0 }
  - { offsetInCU: 0x11ECB6, offset: 0x170715, size: 0x8, addend: 0x0, symName: __MergedGlobals, symObjAddr: 0x10522F0, symBinAddr: 0x100030010, symSize: 0x0 }
  - { offsetInCU: 0x11ECD0, offset: 0x17072F, size: 0x8, addend: 0x0, symName: __MergedGlobals, symObjAddr: 0x10522F0, symBinAddr: 0x100030010, symSize: 0x0 }
  - { offsetInCU: 0x11ECEA, offset: 0x170749, size: 0x8, addend: 0x0, symName: __MergedGlobals, symObjAddr: 0x10522F0, symBinAddr: 0x100030010, symSize: 0x0 }
  - { offsetInCU: 0x11EFCE, offset: 0x170A2D, size: 0x8, addend: 0x0, symName: __ZNK4MSSM15gaugeSusythreshERK9SMGauginoRN5Eigen6MatrixIdLi3ELi1ELi0ELi3ELi1EEE, symObjAddr: 0x4AA8, symBinAddr: 0x10000E294, symSize: 0x57C }
  - { offsetInCU: 0x11F4C4, offset: 0x170F23, size: 0x8, addend: 0x0, symName: __ZNK4MSSM17calcHiggsPropCorrERK9SMGaugino, symObjAddr: 0x6FE4, symBinAddr: 0x1000107D0, symSize: 0x1E4 }
  - { offsetInCU: 0x11F8E0, offset: 0x17133F, size: 0x8, addend: 0x0, symName: __ZNK4MSSM7displayEv, symObjAddr: 0x71C8, symBinAddr: 0x1000109B4, symSize: 0x3A4 }
  - { offsetInCU: 0x11F8EC, offset: 0x17134B, size: 0x8, addend: 0x0, symName: __ZNK4MSSM12ytSusythreshERK9SMGaugino, symObjAddr: 0x5024, symBinAddr: 0x10000E810, symSize: 0x494 }
  - { offsetInCU: 0x11FDBE, offset: 0x17181D, size: 0x8, addend: 0x0, symName: __ZNK4MSSM12ybSusythreshERK9SMGaugino, symObjAddr: 0x54B8, symBinAddr: 0x10000ECA4, symSize: 0x6A4 }
  - { offsetInCU: 0x11FDCA, offset: 0x171829, size: 0x8, addend: 0x0, symName: __ZNK4MSSM12ybSusythreshERK9SMGaugino, symObjAddr: 0x54B8, symBinAddr: 0x10000ECA4, symSize: 0x6A4 }
  - { offsetInCU: 0x120482, offset: 0x171EE1, size: 0x8, addend: 0x0, symName: __ZNK4MSSM14ytauSusythreshERK9SMGaugino, symObjAddr: 0x5B5C, symBinAddr: 0x10000F348, symSize: 0x498 }
  - { offsetInCU: 0x12048E, offset: 0x171EED, size: 0x8, addend: 0x0, symName: __ZNK4MSSM14ytauSusythreshERK9SMGaugino, symObjAddr: 0x5B5C, symBinAddr: 0x10000F348, symSize: 0x498 }
  - { offsetInCU: 0x120953, offset: 0x1723B2, size: 0x8, addend: 0x0, symName: __ZNK4MSSM16lambdaSusythreshERK9SMGaugino, symObjAddr: 0x5FF4, symBinAddr: 0x10000F7E0, symSize: 0xB44 }
  - { offsetInCU: 0x12095F, offset: 0x1723BE, size: 0x8, addend: 0x0, symName: __ZNK4MSSM16lambdaSusythreshERK9SMGaugino, symObjAddr: 0x5FF4, symBinAddr: 0x10000F7E0, symSize: 0xB44 }
  - { offsetInCU: 0x1212CF, offset: 0x172D2E, size: 0x8, addend: 0x0, symName: __ZNK4MSSM17gauginoSusythreshERK9SMGauginoRN5Eigen6MatrixIdLi3ELi1ELi0ELi3ELi1EEE, symObjAddr: 0x6B38, symBinAddr: 0x100010324, symSize: 0x4AC }
  - { offsetInCU: 0x1212DB, offset: 0x172D3A, size: 0x8, addend: 0x0, symName: __ZNK4MSSM17gauginoSusythreshERK9SMGauginoRN5Eigen6MatrixIdLi3ELi1ELi0ELi3ELi1EEE, symObjAddr: 0x6B38, symBinAddr: 0x100010324, symSize: 0x4AC }
  - { offsetInCU: 0x12279C, offset: 0x1741FB, size: 0x8, addend: 0x0, symName: __ZNK4MSSM17calcHiggsPropCorrERK9SMGaugino, symObjAddr: 0x6FE4, symBinAddr: 0x1000107D0, symSize: 0x1E4 }
  - { offsetInCU: 0x1227A8, offset: 0x174207, size: 0x8, addend: 0x0, symName: __ZNK4MSSM4betaEv, symObjAddr: 0x7AC8, symBinAddr: 0x1000112B4, symSize: 0x377C }
  - { offsetInCU: 0x122804, offset: 0x174263, size: 0x8, addend: 0x0, symName: __MergedGlobals, symObjAddr: 0x10522F0, symBinAddr: 0x100030010, symSize: 0x0 }
  - { offsetInCU: 0x12281E, offset: 0x17427D, size: 0x8, addend: 0x0, symName: __MergedGlobals, symObjAddr: 0x10522F0, symBinAddr: 0x100030010, symSize: 0x0 }
  - { offsetInCU: 0x122838, offset: 0x174297, size: 0x8, addend: 0x0, symName: __MergedGlobals, symObjAddr: 0x10522F0, symBinAddr: 0x100030010, symSize: 0x0 }
  - { offsetInCU: 0x122852, offset: 0x1742B1, size: 0x8, addend: 0x0, symName: __MergedGlobals, symObjAddr: 0x10522F0, symBinAddr: 0x100030010, symSize: 0x0 }
  - { offsetInCU: 0x12286C, offset: 0x1742CB, size: 0x8, addend: 0x0, symName: __MergedGlobals, symObjAddr: 0x10522F0, symBinAddr: 0x100030010, symSize: 0x0 }
  - { offsetInCU: 0x122886, offset: 0x1742E5, size: 0x8, addend: 0x0, symName: __MergedGlobals, symObjAddr: 0x10522F0, symBinAddr: 0x100030010, symSize: 0x0 }
  - { offsetInCU: 0x1228A0, offset: 0x1742FF, size: 0x8, addend: 0x0, symName: __MergedGlobals, symObjAddr: 0x10522F0, symBinAddr: 0x100030010, symSize: 0x0 }
  - { offsetInCU: 0x1228BA, offset: 0x174319, size: 0x8, addend: 0x0, symName: __MergedGlobals, symObjAddr: 0x10522F0, symBinAddr: 0x100030010, symSize: 0x0 }
  - { offsetInCU: 0x1228D4, offset: 0x174333, size: 0x8, addend: 0x0, symName: __MergedGlobals, symObjAddr: 0x10522F0, symBinAddr: 0x100030010, symSize: 0x0 }
  - { offsetInCU: 0x1228EE, offset: 0x17434D, size: 0x8, addend: 0x0, symName: __MergedGlobals, symObjAddr: 0x10522F0, symBinAddr: 0x100030010, symSize: 0x0 }
  - { offsetInCU: 0x122908, offset: 0x174367, size: 0x8, addend: 0x0, symName: __MergedGlobals, symObjAddr: 0x10522F0, symBinAddr: 0x100030010, symSize: 0x0 }
  - { offsetInCU: 0x122922, offset: 0x174381, size: 0x8, addend: 0x0, symName: __MergedGlobals, symObjAddr: 0x10522F0, symBinAddr: 0x100030010, symSize: 0x0 }
  - { offsetInCU: 0x12293C, offset: 0x17439B, size: 0x8, addend: 0x0, symName: __MergedGlobals, symObjAddr: 0x10522F0, symBinAddr: 0x100030010, symSize: 0x0 }
  - { offsetInCU: 0x122956, offset: 0x1743B5, size: 0x8, addend: 0x0, symName: __MergedGlobals, symObjAddr: 0x10522F0, symBinAddr: 0x100030010, symSize: 0x0 }
  - { offsetInCU: 0x122970, offset: 0x1743CF, size: 0x8, addend: 0x0, symName: __MergedGlobals, symObjAddr: 0x10522F0, symBinAddr: 0x100030010, symSize: 0x0 }
  - { offsetInCU: 0x12298A, offset: 0x1743E9, size: 0x8, addend: 0x0, symName: __MergedGlobals, symObjAddr: 0x10522F0, symBinAddr: 0x100030010, symSize: 0x0 }
  - { offsetInCU: 0x1229A4, offset: 0x174403, size: 0x8, addend: 0x0, symName: __MergedGlobals, symObjAddr: 0x10522F0, symBinAddr: 0x100030010, symSize: 0x0 }
  - { offsetInCU: 0x1229BE, offset: 0x17441D, size: 0x8, addend: 0x0, symName: __MergedGlobals, symObjAddr: 0x10522F0, symBinAddr: 0x100030010, symSize: 0x0 }
  - { offsetInCU: 0x1229D8, offset: 0x174437, size: 0x8, addend: 0x0, symName: __MergedGlobals, symObjAddr: 0x10522F0, symBinAddr: 0x100030010, symSize: 0x0 }
  - { offsetInCU: 0x1229F2, offset: 0x174451, size: 0x8, addend: 0x0, symName: __MergedGlobals, symObjAddr: 0x10522F0, symBinAddr: 0x100030010, symSize: 0x0 }
  - { offsetInCU: 0x122A0C, offset: 0x17446B, size: 0x8, addend: 0x0, symName: __MergedGlobals, symObjAddr: 0x10522F0, symBinAddr: 0x100030010, symSize: 0x0 }
  - { offsetInCU: 0x122A26, offset: 0x174485, size: 0x8, addend: 0x0, symName: __MergedGlobals, symObjAddr: 0x10522F0, symBinAddr: 0x100030010, symSize: 0x0 }
  - { offsetInCU: 0x122A40, offset: 0x17449F, size: 0x8, addend: 0x0, symName: __MergedGlobals, symObjAddr: 0x10522F0, symBinAddr: 0x100030010, symSize: 0x0 }
  - { offsetInCU: 0x122A5A, offset: 0x1744B9, size: 0x8, addend: 0x0, symName: __MergedGlobals, symObjAddr: 0x10522F0, symBinAddr: 0x100030010, symSize: 0x0 }
  - { offsetInCU: 0x122A74, offset: 0x1744D3, size: 0x8, addend: 0x0, symName: __MergedGlobals, symObjAddr: 0x10522F0, symBinAddr: 0x100030010, symSize: 0x0 }
  - { offsetInCU: 0x122A8E, offset: 0x1744ED, size: 0x8, addend: 0x0, symName: __MergedGlobals, symObjAddr: 0x10522F0, symBinAddr: 0x100030010, symSize: 0x0 }
  - { offsetInCU: 0x122AA8, offset: 0x174507, size: 0x8, addend: 0x0, symName: __MergedGlobals, symObjAddr: 0x10522F0, symBinAddr: 0x100030010, symSize: 0x0 }
  - { offsetInCU: 0x122AC2, offset: 0x174521, size: 0x8, addend: 0x0, symName: __MergedGlobals, symObjAddr: 0x10522F0, symBinAddr: 0x100030010, symSize: 0x0 }
  - { offsetInCU: 0x122ADC, offset: 0x17453B, size: 0x8, addend: 0x0, symName: __MergedGlobals, symObjAddr: 0x10522F0, symBinAddr: 0x100030010, symSize: 0x0 }
  - { offsetInCU: 0x122AF6, offset: 0x174555, size: 0x8, addend: 0x0, symName: __MergedGlobals, symObjAddr: 0x10522F0, symBinAddr: 0x100030010, symSize: 0x0 }
  - { offsetInCU: 0x122B10, offset: 0x17456F, size: 0x8, addend: 0x0, symName: __MergedGlobals, symObjAddr: 0x10522F0, symBinAddr: 0x100030010, symSize: 0x0 }
  - { offsetInCU: 0x122B2A, offset: 0x174589, size: 0x8, addend: 0x0, symName: __MergedGlobals, symObjAddr: 0x10522F0, symBinAddr: 0x100030010, symSize: 0x0 }
  - { offsetInCU: 0x122B44, offset: 0x1745A3, size: 0x8, addend: 0x0, symName: __MergedGlobals, symObjAddr: 0x10522F0, symBinAddr: 0x100030010, symSize: 0x0 }
  - { offsetInCU: 0x122B5E, offset: 0x1745BD, size: 0x8, addend: 0x0, symName: __MergedGlobals, symObjAddr: 0x10522F0, symBinAddr: 0x100030010, symSize: 0x0 }
  - { offsetInCU: 0x122B78, offset: 0x1745D7, size: 0x8, addend: 0x0, symName: __MergedGlobals, symObjAddr: 0x10522F0, symBinAddr: 0x100030010, symSize: 0x0 }
  - { offsetInCU: 0x122B92, offset: 0x1745F1, size: 0x8, addend: 0x0, symName: __MergedGlobals, symObjAddr: 0x10522F0, symBinAddr: 0x100030010, symSize: 0x0 }
  - { offsetInCU: 0x122BAC, offset: 0x17460B, size: 0x8, addend: 0x0, symName: __MergedGlobals, symObjAddr: 0x10522F0, symBinAddr: 0x100030010, symSize: 0x0 }
  - { offsetInCU: 0x122BC6, offset: 0x174625, size: 0x8, addend: 0x0, symName: __MergedGlobals, symObjAddr: 0x10522F0, symBinAddr: 0x100030010, symSize: 0x0 }
  - { offsetInCU: 0x142FCE, offset: 0x194A2D, size: 0x8, addend: 0x0, symName: __ZNK4MSSM25anomalousDimensionOneLoopERN5Eigen6MatrixIdLi3ELi3ELi0ELi3ELi3EEES3_S3_S3_S3_RNS1_IdLi3ELi1ELi0ELi3ELi1EEERdS6_, symObjAddr: 0xB2C0, symBinAddr: 0x100014AAC, symSize: 0x810 }
  - { offsetInCU: 0x1489B6, offset: 0x19A415, size: 0x8, addend: 0x0, symName: __ZNK4MSSM25anomalousDimensionTwoLoopERN5Eigen6MatrixIdLi3ELi3ELi0ELi3ELi3EEES3_S3_S3_S3_RNS1_IdLi3ELi1ELi0ELi3ELi1EEERdS6_, symObjAddr: 0xBAD0, symBinAddr: 0x1000152BC, symSize: 0x1208 }
  - { offsetInCU: 0x1489EB, offset: 0x19A44A, size: 0x8, addend: 0x0, symName: __MergedGlobals, symObjAddr: 0x10522F0, symBinAddr: 0x100030010, symSize: 0x0 }
  - { offsetInCU: 0x148A05, offset: 0x19A464, size: 0x8, addend: 0x0, symName: __MergedGlobals, symObjAddr: 0x10522F0, symBinAddr: 0x100030010, symSize: 0x0 }
  - { offsetInCU: 0x148A1F, offset: 0x19A47E, size: 0x8, addend: 0x0, symName: __MergedGlobals, symObjAddr: 0x10522F0, symBinAddr: 0x100030010, symSize: 0x0 }
  - { offsetInCU: 0x148A39, offset: 0x19A498, size: 0x8, addend: 0x0, symName: __MergedGlobals, symObjAddr: 0x10522F0, symBinAddr: 0x100030010, symSize: 0x0 }
  - { offsetInCU: 0x158419, offset: 0x1A9E78, size: 0x8, addend: 0x0, symName: __ZNK4MSSM18anomalousDimensionERN5Eigen6MatrixIdLi3ELi3ELi0ELi3ELi3EEES3_S3_S3_S3_RNS1_IdLi3ELi1ELi0ELi3ELi1EEERdS6_, symObjAddr: 0x32E4, symBinAddr: 0x10000CAD0, symSize: 0x37C }
  - { offsetInCU: 0x158441, offset: 0x1A9EA0, size: 0x8, addend: 0x0, symName: __MergedGlobals, symObjAddr: 0x10522F0, symBinAddr: 0x100030010, symSize: 0x0 }
  - { offsetInCU: 0x15845B, offset: 0x1A9EBA, size: 0x8, addend: 0x0, symName: __MergedGlobals, symObjAddr: 0x10522F0, symBinAddr: 0x100030010, symSize: 0x0 }
  - { offsetInCU: 0x158475, offset: 0x1A9ED4, size: 0x8, addend: 0x0, symName: __MergedGlobals, symObjAddr: 0x10522F0, symBinAddr: 0x100030010, symSize: 0x0 }
  - { offsetInCU: 0x15848F, offset: 0x1A9EEE, size: 0x8, addend: 0x0, symName: __MergedGlobals.198, symObjAddr: 0x10532E0, symBinAddr: 0x100031000, symSize: 0x0 }
  - { offsetInCU: 0x1584A6, offset: 0x1A9F05, size: 0x8, addend: 0x0, symName: __MergedGlobals.198, symObjAddr: 0x10532E0, symBinAddr: 0x100031000, symSize: 0x0 }
  - { offsetInCU: 0x1584BF, offset: 0x1A9F1E, size: 0x8, addend: 0x0, symName: __MergedGlobals, symObjAddr: 0x10522F0, symBinAddr: 0x100030010, symSize: 0x0 }
  - { offsetInCU: 0x15B4E2, offset: 0x1ACF41, size: 0x8, addend: 0x0, symName: __ZN4MSSM9runtoMgutEv, symObjAddr: 0xCCD8, symBinAddr: 0x1000164C4, symSize: 0xE8 }
  - { offsetInCU: 0x1616BB, offset: 0x1B311A, size: 0x8, addend: 0x0, symName: __ZN5Eigen8internal21dense_assignment_loopINS0_31generic_dense_assignment_kernelINS0_9evaluatorINS_6MatrixIdLi3ELi3ELi0ELi3ELi3EEEEENS3_INS_13CwiseBinaryOpINS0_17scalar_product_opIddEEKNS_14CwiseNullaryOpINS0_18scalar_constant_opIdEEKS5_EEKNS7_INS0_13scalar_sum_opIddEEKNS7_ISH_KNS7_IS9_SD_SF_EEKNS7_IS9_SF_KNS7_ISH_KNS7_ISH_KNS_7ProductIS5_S5_Li0EEESM_EEKNS7_IS9_SF_KNS7_ISH_KNS7_ISH_KNSK_ISL_S5_Li0EEEKNS7_IS9_SF_SD_EEEESD_EEEEEEEEEES12_EEEEEENS0_9assign_opIddEELi0EEELi3ELi0EE3runERS1B_, symObjAddr: 0xDACC, symBinAddr: 0x100016F2C, symSize: 0x624 }
  - { offsetInCU: 0x168672, offset: 0x1BA0D1, size: 0x8, addend: 0x0, symName: __ZN4MSSMC1Ev, symObjAddr: 0x9E8, symBinAddr: 0x10000A1D4, symSize: 0x104 }
  - { offsetInCU: 0x168C67, offset: 0x1BA6C6, size: 0x8, addend: 0x0, symName: __ZN4MSSMC1EdRKN5Eigen6MatrixIdLi3ELi3ELi0ELi3ELi3EEES4_S4_RKNS1_IdLi3ELi1ELi0ELi3ELi1EEEddiS7_S4_S4_S4_S4_S4_S4_S4_S4_ddd, symObjAddr: 0x1124, symBinAddr: 0x10000A910, symSize: 0x364 }
  - { offsetInCU: 0x16986E, offset: 0x1BB2CD, size: 0x8, addend: 0x0, symName: __ZN4MSSMC1Edi, symObjAddr: 0x15A4, symBinAddr: 0x10000AD90, symSize: 0x11C }
  - { offsetInCU: 0x16D5B7, offset: 0x1BF016, size: 0x8, addend: 0x0, symName: __ZN8physParsC2Ev, symObjAddr: 0x0, symBinAddr: 0x1000097EC, symSize: 0x27C }
  - { offsetInCU: 0x16E903, offset: 0x1C0362, size: 0x8, addend: 0x0, symName: __ZN8physParsC2Ev.cold.3, symObjAddr: 0x1070C, symBinAddr: 0x100027A10, symSize: 0x24 }
  - { offsetInCU: 0x16E9B2, offset: 0x1C0411, size: 0x8, addend: 0x0, symName: __ZN8physParsC2Ev.cold.2, symObjAddr: 0x106E8, symBinAddr: 0x1000279EC, symSize: 0x24 }
  - { offsetInCU: 0x16EA61, offset: 0x1C04C0, size: 0x8, addend: 0x0, symName: __ZN8physParsC2Ev.cold.1, symObjAddr: 0x106C4, symBinAddr: 0x1000279C8, symSize: 0x24 }
  - { offsetInCU: 0x16EB10, offset: 0x1C056F, size: 0x8, addend: 0x0, symName: __ZN8physParsC1Ev, symObjAddr: 0x27C, symBinAddr: 0x100009A68, symSize: 0x4 }
  - { offsetInCU: 0x16EB33, offset: 0x1C0592, size: 0x8, addend: 0x0, symName: __ZN8physParsC1Ev, symObjAddr: 0x27C, symBinAddr: 0x100009A68, symSize: 0x4 }
  - { offsetInCU: 0x16EF20, offset: 0x1C097F, size: 0x8, addend: 0x0, symName: __ZN8physParsC2ERKS_, symObjAddr: 0x280, symBinAddr: 0x100009A6C, symSize: 0x164 }
  - { offsetInCU: 0x16F90F, offset: 0x1C136E, size: 0x8, addend: 0x0, symName: __ZN8physParsC1ERKS_, symObjAddr: 0x3E4, symBinAddr: 0x100009BD0, symSize: 0x4 }
  - { offsetInCU: 0x16F939, offset: 0x1C1398, size: 0x8, addend: 0x0, symName: __ZN8physParsC1ERKS_, symObjAddr: 0x3E4, symBinAddr: 0x100009BD0, symSize: 0x4 }
  - { offsetInCU: 0x170548, offset: 0x1C1FA7, size: 0x8, addend: 0x0, symName: __ZN8physParsaSERKS_, symObjAddr: 0x3E8, symBinAddr: 0x100009BD4, symSize: 0x434 }
  - { offsetInCU: 0x1722A2, offset: 0x1C3D01, size: 0x8, addend: 0x0, symName: __ZN7MSSMBCsC2Ev, symObjAddr: 0x81C, symBinAddr: 0x10000A008, symSize: 0x44 }
  - { offsetInCU: 0x1722AE, offset: 0x1C3D0D, size: 0x8, addend: 0x0, symName: __ZN8physParsaSERKS_.cold.1, symObjAddr: 0x10730, symBinAddr: 0x100027A34, symSize: 0x28 }
  - { offsetInCU: 0x17238B, offset: 0x1C3DEA, size: 0x8, addend: 0x0, symName: __ZN7MSSMBCsC2Ev, symObjAddr: 0x81C, symBinAddr: 0x10000A008, symSize: 0x44 }
  - { offsetInCU: 0x1723AD, offset: 0x1C3E0C, size: 0x8, addend: 0x0, symName: __ZN7MSSMBCsC2Ev, symObjAddr: 0x81C, symBinAddr: 0x10000A008, symSize: 0x44 }
  - { offsetInCU: 0x1723C8, offset: 0x1C3E27, size: 0x8, addend: 0x0, symName: __ZN7MSSMBCsC2Ev, symObjAddr: 0x81C, symBinAddr: 0x10000A008, symSize: 0x44 }
  - { offsetInCU: 0x1723E4, offset: 0x1C3E43, size: 0x8, addend: 0x0, symName: __ZN7MSSMBCsC2Ev, symObjAddr: 0x81C, symBinAddr: 0x10000A008, symSize: 0x44 }
  - { offsetInCU: 0x172400, offset: 0x1C3E5F, size: 0x8, addend: 0x0, symName: __ZN7MSSMBCsC2Ev, symObjAddr: 0x81C, symBinAddr: 0x10000A008, symSize: 0x44 }
  - { offsetInCU: 0x17241C, offset: 0x1C3E7B, size: 0x8, addend: 0x0, symName: __ZN7MSSMBCsC2Ev, symObjAddr: 0x81C, symBinAddr: 0x10000A008, symSize: 0x44 }
  - { offsetInCU: 0x172440, offset: 0x1C3E9F, size: 0x8, addend: 0x0, symName: __ZN7MSSMBCsC2Ev, symObjAddr: 0x81C, symBinAddr: 0x10000A008, symSize: 0x44 }
  - { offsetInCU: 0x17245C, offset: 0x1C3EBB, size: 0x8, addend: 0x0, symName: __ZN7MSSMBCsC2Ev, symObjAddr: 0x81C, symBinAddr: 0x10000A008, symSize: 0x44 }
  - { offsetInCU: 0x172478, offset: 0x1C3ED7, size: 0x8, addend: 0x0, symName: __ZN7MSSMBCsC2Ev, symObjAddr: 0x81C, symBinAddr: 0x10000A008, symSize: 0x44 }
  - { offsetInCU: 0x17249A, offset: 0x1C3EF9, size: 0x8, addend: 0x0, symName: __ZN7MSSMBCsC2Ev, symObjAddr: 0x81C, symBinAddr: 0x10000A008, symSize: 0x44 }
  - { offsetInCU: 0x1724E7, offset: 0x1C3F46, size: 0x8, addend: 0x0, symName: __ZN7MSSMBCsC1Ev, symObjAddr: 0x860, symBinAddr: 0x10000A04C, symSize: 0x44 }
  - { offsetInCU: 0x172509, offset: 0x1C3F68, size: 0x8, addend: 0x0, symName: __ZN7MSSMBCsC1Ev, symObjAddr: 0x860, symBinAddr: 0x10000A04C, symSize: 0x44 }
  - { offsetInCU: 0x172524, offset: 0x1C3F83, size: 0x8, addend: 0x0, symName: __ZN7MSSMBCsC1Ev, symObjAddr: 0x860, symBinAddr: 0x10000A04C, symSize: 0x44 }
  - { offsetInCU: 0x17253F, offset: 0x1C3F9E, size: 0x8, addend: 0x0, symName: __ZN7MSSMBCsC1Ev, symObjAddr: 0x860, symBinAddr: 0x10000A04C, symSize: 0x44 }
  - { offsetInCU: 0x17255B, offset: 0x1C3FBA, size: 0x8, addend: 0x0, symName: __ZN7MSSMBCsC1Ev, symObjAddr: 0x860, symBinAddr: 0x10000A04C, symSize: 0x44 }
  - { offsetInCU: 0x172577, offset: 0x1C3FD6, size: 0x8, addend: 0x0, symName: __ZN7MSSMBCsC1Ev, symObjAddr: 0x860, symBinAddr: 0x10000A04C, symSize: 0x44 }
  - { offsetInCU: 0x172593, offset: 0x1C3FF2, size: 0x8, addend: 0x0, symName: __ZN7MSSMBCsC1Ev, symObjAddr: 0x860, symBinAddr: 0x10000A04C, symSize: 0x44 }
  - { offsetInCU: 0x1725B7, offset: 0x1C4016, size: 0x8, addend: 0x0, symName: __ZN7MSSMBCsC1Ev, symObjAddr: 0x860, symBinAddr: 0x10000A04C, symSize: 0x44 }
  - { offsetInCU: 0x1725D3, offset: 0x1C4032, size: 0x8, addend: 0x0, symName: __ZN7MSSMBCsC1Ev, symObjAddr: 0x860, symBinAddr: 0x10000A04C, symSize: 0x44 }
  - { offsetInCU: 0x1725EF, offset: 0x1C404E, size: 0x8, addend: 0x0, symName: __ZN7MSSMBCsC1Ev, symObjAddr: 0x860, symBinAddr: 0x10000A04C, symSize: 0x44 }
  - { offsetInCU: 0x172611, offset: 0x1C4070, size: 0x8, addend: 0x0, symName: __ZN7MSSMBCsC1Ev, symObjAddr: 0x860, symBinAddr: 0x10000A04C, symSize: 0x44 }
  - { offsetInCU: 0x172A5C, offset: 0x1C44BB, size: 0x8, addend: 0x0, symName: __ZN4MSSMC2Ev, symObjAddr: 0x8A4, symBinAddr: 0x10000A090, symSize: 0x104 }
  - { offsetInCU: 0x172F5A, offset: 0x1C49B9, size: 0x8, addend: 0x0, symName: __ZNSt3__110__function12__value_funcIFN5Eigen6MatrixIdLi3ELi1ELi0ELi3ELi1EEEdEE4swapB7v160006ERS6_, symObjAddr: 0xCEF4, symBinAddr: 0x1000166D4, symSize: 0x198 }
  - { offsetInCU: 0x17312F, offset: 0x1C4B8E, size: 0x8, addend: 0x0, symName: __ZN8physParsD1Ev, symObjAddr: 0x9A8, symBinAddr: 0x10000A194, symSize: 0x40 }
  - { offsetInCU: 0x1736F4, offset: 0x1C5153, size: 0x8, addend: 0x0, symName: __ZN4MSSMC2ERKS_, symObjAddr: 0xAEC, symBinAddr: 0x10000A2D8, symSize: 0x2D0 }
  - { offsetInCU: 0x173F9F, offset: 0x1C59FE, size: 0x8, addend: 0x0, symName: __ZN4MSSMC1ERKS_, symObjAddr: 0xDBC, symBinAddr: 0x10000A5A8, symSize: 0x4 }
  - { offsetInCU: 0x173FDB, offset: 0x1C5A3A, size: 0x8, addend: 0x0, symName: __ZN4MSSMC1ERKS_, symObjAddr: 0xDBC, symBinAddr: 0x10000A5A8, symSize: 0x4 }
  - { offsetInCU: 0x174209, offset: 0x1C5C68, size: 0x8, addend: 0x0, symName: __ZN4MSSMC2EdRKN5Eigen6MatrixIdLi3ELi3ELi0ELi3ELi3EEES4_S4_RKNS1_IdLi3ELi1ELi0ELi3ELi1EEEddiS7_S4_S4_S4_S4_S4_S4_S4_S4_ddd, symObjAddr: 0xDC0, symBinAddr: 0x10000A5AC, symSize: 0x364 }
  - { offsetInCU: 0x174F71, offset: 0x1C69D0, size: 0x8, addend: 0x0, symName: __ZN4MSSMC2Edi, symObjAddr: 0x1488, symBinAddr: 0x10000AC74, symSize: 0x11C }
  - { offsetInCU: 0x175777, offset: 0x1C71D6, size: 0x8, addend: 0x0, symName: __ZN4MSSMaSERKS_, symObjAddr: 0x16C0, symBinAddr: 0x10000AEAC, symSize: 0x460 }
  - { offsetInCU: 0x17CC08, offset: 0x1CE667, size: 0x8, addend: 0x0, symName: __ZNK4MSSM13displayYukawaE8yukawaID, symObjAddr: 0x1B20, symBinAddr: 0x10000B30C, symSize: 0x80 }
  - { offsetInCU: 0x17CECF, offset: 0x1CE92E, size: 0x8, addend: 0x0, symName: __ZNK4MSSM20displayYukawaElementE8yukawaIDii, symObjAddr: 0x1BA0, symBinAddr: 0x10000B38C, symSize: 0xAC }
  - { offsetInCU: 0x17CFA5, offset: 0x1CEA04, size: 0x8, addend: 0x0, symName: __ZNK4MSSM16displayTrilinearE8yukawaID, symObjAddr: 0x1C4C, symBinAddr: 0x10000B438, symSize: 0x80 }
  - { offsetInCU: 0x17CFB1, offset: 0x1CEA10, size: 0x8, addend: 0x0, symName: __ZNK4MSSM20displayYukawaElementE8yukawaIDii.cold.1, symObjAddr: 0x10758, symBinAddr: 0x100027A5C, symSize: 0x24 }
  - { offsetInCU: 0x17CFDF, offset: 0x1CEA3E, size: 0x8, addend: 0x0, symName: __ZNK4MSSM20displayYukawaElementE8yukawaIDii.cold.3, symObjAddr: 0x107A0, symBinAddr: 0x100027AA4, symSize: 0x24 }
  - { offsetInCU: 0x17D00D, offset: 0x1CEA6C, size: 0x8, addend: 0x0, symName: __ZNK4MSSM20displayYukawaElementE8yukawaIDii.cold.2, symObjAddr: 0x1077C, symBinAddr: 0x100027A80, symSize: 0x24 }
  - { offsetInCU: 0x17D03B, offset: 0x1CEA9A, size: 0x8, addend: 0x0, symName: __ZNK4MSSM16displayTrilinearE8yukawaID, symObjAddr: 0x1C4C, symBinAddr: 0x10000B438, symSize: 0x80 }
  - { offsetInCU: 0x17D2DF, offset: 0x1CED3E, size: 0x8, addend: 0x0, symName: __ZNK4MSSM23displayTrilinearElementE8yukawaIDii, symObjAddr: 0x1CCC, symBinAddr: 0x10000B4B8, symSize: 0xAC }
  - { offsetInCU: 0x17D3B5, offset: 0x1CEE14, size: 0x8, addend: 0x0, symName: __ZNK4MSSM17displaySoftMassSqE6massID, symObjAddr: 0x1D78, symBinAddr: 0x10000B564, symSize: 0xD4 }
  - { offsetInCU: 0x17D3C1, offset: 0x1CEE20, size: 0x8, addend: 0x0, symName: __ZNK4MSSM23displayTrilinearElementE8yukawaIDii.cold.1, symObjAddr: 0x107C4, symBinAddr: 0x100027AC8, symSize: 0x24 }
  - { offsetInCU: 0x17D3EF, offset: 0x1CEE4E, size: 0x8, addend: 0x0, symName: __ZNK4MSSM23displayTrilinearElementE8yukawaIDii.cold.3, symObjAddr: 0x1080C, symBinAddr: 0x100027B10, symSize: 0x24 }
  - { offsetInCU: 0x17D41D, offset: 0x1CEE7C, size: 0x8, addend: 0x0, symName: __ZNK4MSSM23displayTrilinearElementE8yukawaIDii.cold.2, symObjAddr: 0x107E8, symBinAddr: 0x100027AEC, symSize: 0x24 }
  - { offsetInCU: 0x17D44B, offset: 0x1CEEAA, size: 0x8, addend: 0x0, symName: __ZNK4MSSM17displaySoftMassSqE6massID, symObjAddr: 0x1D78, symBinAddr: 0x10000B564, symSize: 0xD4 }
  - { offsetInCU: 0x17D7C5, offset: 0x1CF224, size: 0x8, addend: 0x0, symName: __ZNK4MSSM24displaySoftMassSqElementE6massIDii, symObjAddr: 0x1E4C, symBinAddr: 0x10000B638, symSize: 0x164 }
  - { offsetInCU: 0x17D909, offset: 0x1CF368, size: 0x8, addend: 0x0, symName: __ZNK4MSSM22displayLambdaFromGaugeEv, symObjAddr: 0x1FB0, symBinAddr: 0x10000B79C, symSize: 0x44 }
  - { offsetInCU: 0x17D915, offset: 0x1CF374, size: 0x8, addend: 0x0, symName: __ZNK4MSSM24displaySoftMassSqElementE6massIDii.cold.1, symObjAddr: 0x10830, symBinAddr: 0x100027B34, symSize: 0x24 }
  - { offsetInCU: 0x17D943, offset: 0x1CF3A2, size: 0x8, addend: 0x0, symName: __ZNK4MSSM24displaySoftMassSqElementE6massIDii.cold.2, symObjAddr: 0x10854, symBinAddr: 0x100027B58, symSize: 0x24 }
  - { offsetInCU: 0x17D971, offset: 0x1CF3D0, size: 0x8, addend: 0x0, symName: __ZNK4MSSM24displaySoftMassSqElementE6massIDii.cold.3, symObjAddr: 0x10878, symBinAddr: 0x100027B7C, symSize: 0x24 }
  - { offsetInCU: 0x17D99F, offset: 0x1CF3FE, size: 0x8, addend: 0x0, symName: __ZNK4MSSM24displaySoftMassSqElementE6massIDii.cold.4, symObjAddr: 0x1089C, symBinAddr: 0x100027BA0, symSize: 0x24 }
  - { offsetInCU: 0x17D9CD, offset: 0x1CF42C, size: 0x8, addend: 0x0, symName: __ZNK4MSSM24displaySoftMassSqElementE6massIDii.cold.5, symObjAddr: 0x108C0, symBinAddr: 0x100027BC4, symSize: 0x24 }
  - { offsetInCU: 0x17DA1C, offset: 0x1CF47B, size: 0x8, addend: 0x0, symName: __ZNK4MSSM22displayLambdaFromGaugeEv, symObjAddr: 0x1FB0, symBinAddr: 0x10000B79C, symSize: 0x44 }
  - { offsetInCU: 0x17DA5C, offset: 0x1CF4BB, size: 0x8, addend: 0x0, symName: __ZNK4MSSM22displayLambdaFromGaugeEv, symObjAddr: 0x1FB0, symBinAddr: 0x10000B79C, symSize: 0x44 }
  - { offsetInCU: 0x17DB27, offset: 0x1CF586, size: 0x8, addend: 0x0, symName: __ZNK4MSSM14displayXtTildeEv, symObjAddr: 0x1FF4, symBinAddr: 0x10000B7E0, symSize: 0x44 }
  - { offsetInCU: 0x17DB90, offset: 0x1CF5EF, size: 0x8, addend: 0x0, symName: __ZNK4MSSM14displayXtTildeEv, symObjAddr: 0x1FF4, symBinAddr: 0x10000B7E0, symSize: 0x44 }
  - { offsetInCU: 0x17DCFB, offset: 0x1CF75A, size: 0x8, addend: 0x0, symName: __ZNK4MSSM9IsCloseBCEv, symObjAddr: 0x2038, symBinAddr: 0x10000B824, symSize: 0x270 }
  - { offsetInCU: 0x17E0F0, offset: 0x1CFB4F, size: 0x8, addend: 0x0, symName: __ZN4MSSM9setYukawaE8yukawaIDRKN5Eigen6MatrixIdLi3ELi3ELi0ELi3ELi3EEE, symObjAddr: 0x22A8, symBinAddr: 0x10000BA94, symSize: 0x98 }
  - { offsetInCU: 0x17F48F, offset: 0x1D0EEE, size: 0x8, addend: 0x0, symName: __ZN4MSSM16setYukawaElementE8yukawaIDiid, symObjAddr: 0x2340, symBinAddr: 0x10000BB2C, symSize: 0xA8 }
  - { offsetInCU: 0x17F56E, offset: 0x1D0FCD, size: 0x8, addend: 0x0, symName: __ZN4MSSM12setTrilinearE8yukawaIDRKN5Eigen6MatrixIdLi3ELi3ELi0ELi3ELi3EEE, symObjAddr: 0x23E8, symBinAddr: 0x10000BBD4, symSize: 0x98 }
  - { offsetInCU: 0x17F57A, offset: 0x1D0FD9, size: 0x8, addend: 0x0, symName: __ZN4MSSM16setYukawaElementE8yukawaIDiid.cold.1, symObjAddr: 0x108E4, symBinAddr: 0x100027BE8, symSize: 0x24 }
  - { offsetInCU: 0x17F5A9, offset: 0x1D1008, size: 0x8, addend: 0x0, symName: __ZN4MSSM16setYukawaElementE8yukawaIDiid.cold.3, symObjAddr: 0x1092C, symBinAddr: 0x100027C30, symSize: 0x24 }
  - { offsetInCU: 0x17F5D8, offset: 0x1D1037, size: 0x8, addend: 0x0, symName: __ZN4MSSM16setYukawaElementE8yukawaIDiid.cold.2, symObjAddr: 0x10908, symBinAddr: 0x100027C0C, symSize: 0x24 }
  - { offsetInCU: 0x17F607, offset: 0x1D1066, size: 0x8, addend: 0x0, symName: __ZN4MSSM12setTrilinearE8yukawaIDRKN5Eigen6MatrixIdLi3ELi3ELi0ELi3ELi3EEE, symObjAddr: 0x23E8, symBinAddr: 0x10000BBD4, symSize: 0x98 }
  - { offsetInCU: 0x180973, offset: 0x1D23D2, size: 0x8, addend: 0x0, symName: __ZN4MSSM19setTrilinearElementE8yukawaIDiid, symObjAddr: 0x2480, symBinAddr: 0x10000BC6C, symSize: 0xA8 }
  - { offsetInCU: 0x180A52, offset: 0x1D24B1, size: 0x8, addend: 0x0, symName: __ZN4MSSM13setSoftMassSqE6massIDRKN5Eigen6MatrixIdLi3ELi3ELi0ELi3ELi3EEE, symObjAddr: 0x2528, symBinAddr: 0x10000BD14, symSize: 0xFC }
  - { offsetInCU: 0x180A5E, offset: 0x1D24BD, size: 0x8, addend: 0x0, symName: __ZN4MSSM19setTrilinearElementE8yukawaIDiid.cold.1, symObjAddr: 0x10950, symBinAddr: 0x100027C54, symSize: 0x24 }
  - { offsetInCU: 0x180A8D, offset: 0x1D24EC, size: 0x8, addend: 0x0, symName: __ZN4MSSM19setTrilinearElementE8yukawaIDiid.cold.3, symObjAddr: 0x10998, symBinAddr: 0x100027C9C, symSize: 0x24 }
  - { offsetInCU: 0x180ABC, offset: 0x1D251B, size: 0x8, addend: 0x0, symName: __ZN4MSSM19setTrilinearElementE8yukawaIDiid.cold.2, symObjAddr: 0x10974, symBinAddr: 0x100027C78, symSize: 0x24 }
  - { offsetInCU: 0x180AEB, offset: 0x1D254A, size: 0x8, addend: 0x0, symName: __ZN4MSSM13setSoftMassSqE6massIDRKN5Eigen6MatrixIdLi3ELi3ELi0ELi3ELi3EEE, symObjAddr: 0x2528, symBinAddr: 0x10000BD14, symSize: 0xFC }
  - { offsetInCU: 0x182B15, offset: 0x1D4574, size: 0x8, addend: 0x0, symName: __ZN4MSSM20setSoftMassSqElementE6massIDiid, symObjAddr: 0x2624, symBinAddr: 0x10000BE10, symSize: 0x108 }
  - { offsetInCU: 0x182C62, offset: 0x1D46C1, size: 0x8, addend: 0x0, symName: __ZN4MSSM5setBCERKN5Eigen6MatrixIdLi3ELi1ELi0ELi3ELi1EEEdddRKNS1_IdLi3ELi3ELi0ELi3ELi3EEES7_S7_S7_S7_ddd, symObjAddr: 0x272C, symBinAddr: 0x10000BF18, symSize: 0xFC }
  - { offsetInCU: 0x182C6E, offset: 0x1D46CD, size: 0x8, addend: 0x0, symName: __ZN4MSSM20setSoftMassSqElementE6massIDiid.cold.1, symObjAddr: 0x109BC, symBinAddr: 0x100027CC0, symSize: 0x24 }
  - { offsetInCU: 0x182C9D, offset: 0x1D46FC, size: 0x8, addend: 0x0, symName: __ZN4MSSM20setSoftMassSqElementE6massIDiid.cold.2, symObjAddr: 0x109E0, symBinAddr: 0x100027CE4, symSize: 0x24 }
  - { offsetInCU: 0x182CCC, offset: 0x1D472B, size: 0x8, addend: 0x0, symName: __ZN4MSSM20setSoftMassSqElementE6massIDiid.cold.3, symObjAddr: 0x10A04, symBinAddr: 0x100027D08, symSize: 0x24 }
  - { offsetInCU: 0x182CFB, offset: 0x1D475A, size: 0x8, addend: 0x0, symName: __ZN4MSSM20setSoftMassSqElementE6massIDiid.cold.4, symObjAddr: 0x10A28, symBinAddr: 0x100027D2C, symSize: 0x24 }
  - { offsetInCU: 0x182D2A, offset: 0x1D4789, size: 0x8, addend: 0x0, symName: __ZN4MSSM20setSoftMassSqElementE6massIDiid.cold.5, symObjAddr: 0x10A4C, symBinAddr: 0x100027D50, symSize: 0x24 }
  - { offsetInCU: 0x182D59, offset: 0x1D47B8, size: 0x8, addend: 0x0, symName: __ZN4MSSM5setBCERKN5Eigen6MatrixIdLi3ELi1ELi0ELi3ELi1EEEdddRKNS1_IdLi3ELi3ELi0ELi3ELi3EEES7_S7_S7_S7_ddd, symObjAddr: 0x272C, symBinAddr: 0x10000BF18, symSize: 0xFC }
  - { offsetInCU: 0x1854A5, offset: 0x1D6F04, size: 0x8, addend: 0x0, symName: __ZN4MSSM12setBC_mSUGRAEddd, symObjAddr: 0x2828, symBinAddr: 0x10000C014, symSize: 0x8C }
  - { offsetInCU: 0x18553E, offset: 0x1D6F9D, size: 0x8, addend: 0x0, symName: __ZN4MSSM12setBC_mSUGRAEddd, symObjAddr: 0x2828, symBinAddr: 0x10000C014, symSize: 0x8C }
  - { offsetInCU: 0x185553, offset: 0x1D6FB2, size: 0x8, addend: 0x0, symName: __ZN4MSSM12setBC_mSUGRAEddd, symObjAddr: 0x2828, symBinAddr: 0x10000C014, symSize: 0x8C }
  - { offsetInCU: 0x186D59, offset: 0x1D87B8, size: 0x8, addend: 0x0, symName: __ZN4MSSM9setBC_su5Eddddddd, symObjAddr: 0x28B4, symBinAddr: 0x10000C0A0, symSize: 0xA0 }
  - { offsetInCU: 0x186E60, offset: 0x1D88BF, size: 0x8, addend: 0x0, symName: __ZN4MSSM9setBC_su5Eddddddd, symObjAddr: 0x28B4, symBinAddr: 0x10000C0A0, symSize: 0xA0 }
  - { offsetInCU: 0x186E75, offset: 0x1D88D4, size: 0x8, addend: 0x0, symName: __ZN4MSSM9setBC_su5Eddddddd, symObjAddr: 0x28B4, symBinAddr: 0x10000C0A0, symSize: 0xA0 }
  - { offsetInCU: 0x1887E0, offset: 0x1DA23F, size: 0x8, addend: 0x0, symName: __ZN4MSSM14setBC_su5_AMSBEddddd, symObjAddr: 0x2954, symBinAddr: 0x10000C140, symSize: 0x9C }
  - { offsetInCU: 0x18C07B, offset: 0x1DDADA, size: 0x8, addend: 0x0, symName: __ZN4MSSM14matchSMGauginoERK9SMGauginodddRKN5Eigen6MatrixIdLi3ELi3ELi0ELi3ELi3EEES7_S7_S7_S7_S7_S7_S7_, symObjAddr: 0x3660, symBinAddr: 0x10000CE4C, symSize: 0x310 }
  - { offsetInCU: 0x190C60, offset: 0x1E26BF, size: 0x8, addend: 0x0, symName: __ZN4MSSM12ewsbMatchingERK9SMGaugino, symObjAddr: 0x4068, symBinAddr: 0x10000D854, symSize: 0xD4 }
  - { offsetInCU: 0x190E92, offset: 0x1E28F1, size: 0x8, addend: 0x0, symName: __ZN4MSSM18thresholdSMGauginoERK9SMGauginoRS0_, symObjAddr: 0x413C, symBinAddr: 0x10000D928, symSize: 0x2F0 }
  - { offsetInCU: 0x190E9E, offset: 0x1E28FD, size: 0x8, addend: 0x0, symName: __ZNSt3__119basic_ostringstreamIcNS_11char_traitsIcEENS_9allocatorIcEEEC1B7v160006Ev, symObjAddr: 0x3E68, symBinAddr: 0x10000D654, symSize: 0xEC }
  - { offsetInCU: 0x190F63, offset: 0x1E29C2, size: 0x8, addend: 0x0, symName: __ZNSt3__119basic_ostringstreamIcNS_11char_traitsIcEENS_9allocatorIcEEED1Ev, symObjAddr: 0x3FE4, symBinAddr: 0x10000D7D0, symSize: 0x84 }
  - { offsetInCU: 0x1913EA, offset: 0x1E2E49, size: 0x8, addend: 0x0, symName: __ZN4MSSM12ewsbMatchingERK9SMGaugino.cold.1, symObjAddr: 0x10A70, symBinAddr: 0x100027D74, symSize: 0x28 }
  - { offsetInCU: 0x19168E, offset: 0x1E30ED, size: 0x8, addend: 0x0, symName: __ZNK4MSSM15gaugeSusythreshERK9SMGauginoRN5Eigen6MatrixIdLi3ELi1ELi0ELi3ELi1EEE.cold.4, symObjAddr: 0x10B04, symBinAddr: 0x100027E08, symSize: 0x24 }
  - { offsetInCU: 0x1916BD, offset: 0x1E311C, size: 0x8, addend: 0x0, symName: __ZNK4MSSM15gaugeSusythreshERK9SMGauginoRN5Eigen6MatrixIdLi3ELi1ELi0ELi3ELi1EEE.cold.3, symObjAddr: 0x10AE0, symBinAddr: 0x100027DE4, symSize: 0x24 }
  - { offsetInCU: 0x1916EC, offset: 0x1E314B, size: 0x8, addend: 0x0, symName: __ZNK4MSSM15gaugeSusythreshERK9SMGauginoRN5Eigen6MatrixIdLi3ELi1ELi0ELi3ELi1EEE.cold.1, symObjAddr: 0x10A98, symBinAddr: 0x100027D9C, symSize: 0x24 }
  - { offsetInCU: 0x191727, offset: 0x1E3186, size: 0x8, addend: 0x0, symName: __ZNK4MSSM15gaugeSusythreshERK9SMGauginoRN5Eigen6MatrixIdLi3ELi1ELi0ELi3ELi1EEE.cold.2, symObjAddr: 0x10ABC, symBinAddr: 0x100027DC0, symSize: 0x24 }
  - { offsetInCU: 0x191756, offset: 0x1E31B5, size: 0x8, addend: 0x0, symName: __ZNK4MSSM15gaugeSusythreshERK9SMGauginoRN5Eigen6MatrixIdLi3ELi1ELi0ELi3ELi1EEE.cold.5, symObjAddr: 0x10B28, symBinAddr: 0x100027E2C, symSize: 0x24 }
  - { offsetInCU: 0x191785, offset: 0x1E31E4, size: 0x8, addend: 0x0, symName: __ZNK4MSSM12ytSusythreshERK9SMGaugino.cold.2, symObjAddr: 0x10B70, symBinAddr: 0x100027E74, symSize: 0x24 }
  - { offsetInCU: 0x1917B4, offset: 0x1E3213, size: 0x8, addend: 0x0, symName: __ZNK4MSSM12ytSusythreshERK9SMGaugino.cold.1, symObjAddr: 0x10B4C, symBinAddr: 0x100027E50, symSize: 0x24 }
  - { offsetInCU: 0x1917E3, offset: 0x1E3242, size: 0x8, addend: 0x0, symName: __ZNK4MSSM12ybSusythreshERK9SMGaugino.cold.3, symObjAddr: 0x10BDC, symBinAddr: 0x100027EE0, symSize: 0x24 }
  - { offsetInCU: 0x191812, offset: 0x1E3271, size: 0x8, addend: 0x0, symName: __ZNK4MSSM12ybSusythreshERK9SMGaugino.cold.1, symObjAddr: 0x10B94, symBinAddr: 0x100027E98, symSize: 0x24 }
  - { offsetInCU: 0x191841, offset: 0x1E32A0, size: 0x8, addend: 0x0, symName: __ZNK4MSSM12ybSusythreshERK9SMGaugino.cold.2, symObjAddr: 0x10BB8, symBinAddr: 0x100027EBC, symSize: 0x24 }
  - { offsetInCU: 0x191870, offset: 0x1E32CF, size: 0x8, addend: 0x0, symName: __ZNK4MSSM14ytauSusythreshERK9SMGaugino.cold.2, symObjAddr: 0x10C24, symBinAddr: 0x100027F28, symSize: 0x24 }
  - { offsetInCU: 0x19189F, offset: 0x1E32FE, size: 0x8, addend: 0x0, symName: __ZNK4MSSM14ytauSusythreshERK9SMGaugino.cold.1, symObjAddr: 0x10C00, symBinAddr: 0x100027F04, symSize: 0x24 }
  - { offsetInCU: 0x191907, offset: 0x1E3366, size: 0x8, addend: 0x0, symName: __ZNK4MSSM16lambdaSusythreshERK9SMGaugino.cold.4, symObjAddr: 0x10CB4, symBinAddr: 0x100027FB8, symSize: 0x24 }
  - { offsetInCU: 0x191936, offset: 0x1E3395, size: 0x8, addend: 0x0, symName: __ZNK4MSSM16lambdaSusythreshERK9SMGaugino.cold.3, symObjAddr: 0x10C90, symBinAddr: 0x100027F94, symSize: 0x24 }
  - { offsetInCU: 0x191965, offset: 0x1E33C4, size: 0x8, addend: 0x0, symName: __ZNK4MSSM16lambdaSusythreshERK9SMGaugino.cold.7, symObjAddr: 0x10D20, symBinAddr: 0x100028024, symSize: 0x24 }
  - { offsetInCU: 0x191994, offset: 0x1E33F3, size: 0x8, addend: 0x0, symName: __ZNK4MSSM16lambdaSusythreshERK9SMGaugino.cold.6, symObjAddr: 0x10CFC, symBinAddr: 0x100028000, symSize: 0x24 }
  - { offsetInCU: 0x1919C3, offset: 0x1E3422, size: 0x8, addend: 0x0, symName: __ZNK4MSSM16lambdaSusythreshERK9SMGaugino.cold.1, symObjAddr: 0x10C48, symBinAddr: 0x100027F4C, symSize: 0x24 }
  - { offsetInCU: 0x1919FE, offset: 0x1E345D, size: 0x8, addend: 0x0, symName: __ZNK4MSSM16lambdaSusythreshERK9SMGaugino.cold.2, symObjAddr: 0x10C6C, symBinAddr: 0x100027F70, symSize: 0x24 }
  - { offsetInCU: 0x191A2D, offset: 0x1E348C, size: 0x8, addend: 0x0, symName: __ZNK4MSSM16lambdaSusythreshERK9SMGaugino.cold.5, symObjAddr: 0x10CD8, symBinAddr: 0x100027FDC, symSize: 0x24 }
  - { offsetInCU: 0x191A7A, offset: 0x1E34D9, size: 0x8, addend: 0x0, symName: __ZNK4MSSM17gauginoSusythreshERK9SMGauginoRN5Eigen6MatrixIdLi3ELi1ELi0ELi3ELi1EEE.cold.10, symObjAddr: 0x10E88, symBinAddr: 0x10002818C, symSize: 0x24 }
  - { offsetInCU: 0x191AA9, offset: 0x1E3508, size: 0x8, addend: 0x0, symName: __ZNK4MSSM17gauginoSusythreshERK9SMGauginoRN5Eigen6MatrixIdLi3ELi1ELi0ELi3ELi1EEE.cold.9, symObjAddr: 0x10E64, symBinAddr: 0x100028168, symSize: 0x24 }
  - { offsetInCU: 0x191AD8, offset: 0x1E3537, size: 0x8, addend: 0x0, symName: __ZNK4MSSM17gauginoSusythreshERK9SMGauginoRN5Eigen6MatrixIdLi3ELi1ELi0ELi3ELi1EEE.cold.8, symObjAddr: 0x10E40, symBinAddr: 0x100028144, symSize: 0x24 }
  - { offsetInCU: 0x191B07, offset: 0x1E3566, size: 0x8, addend: 0x0, symName: __ZNK4MSSM17gauginoSusythreshERK9SMGauginoRN5Eigen6MatrixIdLi3ELi1ELi0ELi3ELi1EEE.cold.7, symObjAddr: 0x10E1C, symBinAddr: 0x100028120, symSize: 0x24 }
  - { offsetInCU: 0x191B36, offset: 0x1E3595, size: 0x8, addend: 0x0, symName: __ZNK4MSSM17gauginoSusythreshERK9SMGauginoRN5Eigen6MatrixIdLi3ELi1ELi0ELi3ELi1EEE.cold.6, symObjAddr: 0x10DF8, symBinAddr: 0x1000280FC, symSize: 0x24 }
  - { offsetInCU: 0x191B65, offset: 0x1E35C4, size: 0x8, addend: 0x0, symName: __ZNK4MSSM17gauginoSusythreshERK9SMGauginoRN5Eigen6MatrixIdLi3ELi1ELi0ELi3ELi1EEE.cold.5, symObjAddr: 0x10DD4, symBinAddr: 0x1000280D8, symSize: 0x24 }
  - { offsetInCU: 0x191B94, offset: 0x1E35F3, size: 0x8, addend: 0x0, symName: __ZNK4MSSM17gauginoSusythreshERK9SMGauginoRN5Eigen6MatrixIdLi3ELi1ELi0ELi3ELi1EEE.cold.4, symObjAddr: 0x10DB0, symBinAddr: 0x1000280B4, symSize: 0x24 }
  - { offsetInCU: 0x191BC3, offset: 0x1E3622, size: 0x8, addend: 0x0, symName: __ZNK4MSSM17gauginoSusythreshERK9SMGauginoRN5Eigen6MatrixIdLi3ELi1ELi0ELi3ELi1EEE.cold.3, symObjAddr: 0x10D8C, symBinAddr: 0x100028090, symSize: 0x24 }
  - { offsetInCU: 0x191BF2, offset: 0x1E3651, size: 0x8, addend: 0x0, symName: __ZNK4MSSM17gauginoSusythreshERK9SMGauginoRN5Eigen6MatrixIdLi3ELi1ELi0ELi3ELi1EEE.cold.2, symObjAddr: 0x10D68, symBinAddr: 0x10002806C, symSize: 0x24 }
  - { offsetInCU: 0x191C21, offset: 0x1E3680, size: 0x8, addend: 0x0, symName: __ZNK4MSSM17gauginoSusythreshERK9SMGauginoRN5Eigen6MatrixIdLi3ELi1ELi0ELi3ELi1EEE.cold.1, symObjAddr: 0x10D44, symBinAddr: 0x100028048, symSize: 0x24 }
  - { offsetInCU: 0x191C50, offset: 0x1E36AF, size: 0x8, addend: 0x0, symName: __ZNK4MSSM17calcHiggsPropCorrERK9SMGaugino.cold.2, symObjAddr: 0x10ED0, symBinAddr: 0x1000281D4, symSize: 0x24 }
  - { offsetInCU: 0x191C7F, offset: 0x1E36DE, size: 0x8, addend: 0x0, symName: __ZNK4MSSM17calcHiggsPropCorrERK9SMGaugino.cold.1, symObjAddr: 0x10EAC, symBinAddr: 0x1000281B0, symSize: 0x24 }
  - { offsetInCU: 0x191E13, offset: 0x1E3872, size: 0x8, addend: 0x0, symName: __ZNK4MSSM7displayEv, symObjAddr: 0x71C8, symBinAddr: 0x1000109B4, symSize: 0x3A4 }
  - { offsetInCU: 0x1923D1, offset: 0x1E3E30, size: 0x8, addend: 0x0, symName: __ZN4MSSM3setERKN5Eigen6MatrixIdLin1ELi1ELi0ELin1ELi1EEE, symObjAddr: 0x756C, symBinAddr: 0x100010D58, symSize: 0x55C }
  - { offsetInCU: 0x192A22, offset: 0x1E4481, size: 0x8, addend: 0x0, symName: __ZNK4MSSM4betaEv, symObjAddr: 0x7AC8, symBinAddr: 0x1000112B4, symSize: 0x377C }
  - { offsetInCU: 0x192A2E, offset: 0x1E448D, size: 0x8, addend: 0x0, symName: __ZN4MSSM3setERKN5Eigen6MatrixIdLin1ELi1ELi0ELin1ELi1EEE.cold.1, symObjAddr: 0x10EF4, symBinAddr: 0x1000281F8, symSize: 0x24 }
  - { offsetInCU: 0x192A5D, offset: 0x1E44BC, size: 0x8, addend: 0x0, symName: __ZN4MSSM3setERKN5Eigen6MatrixIdLin1ELi1ELi0ELin1ELi1EEE.cold.4, symObjAddr: 0x10F60, symBinAddr: 0x100028264, symSize: 0x24 }
  - { offsetInCU: 0x192A8C, offset: 0x1E44EB, size: 0x8, addend: 0x0, symName: __ZN4MSSM3setERKN5Eigen6MatrixIdLin1ELi1ELi0ELin1ELi1EEE.cold.6, symObjAddr: 0x10FA8, symBinAddr: 0x1000282AC, symSize: 0x24 }
  - { offsetInCU: 0x192ABB, offset: 0x1E451A, size: 0x8, addend: 0x0, symName: __ZN4MSSM3setERKN5Eigen6MatrixIdLin1ELi1ELi0ELin1ELi1EEE.cold.17, symObjAddr: 0x11134, symBinAddr: 0x100028438, symSize: 0x24 }
  - { offsetInCU: 0x192AEA, offset: 0x1E4549, size: 0x8, addend: 0x0, symName: __ZN4MSSM3setERKN5Eigen6MatrixIdLin1ELi1ELi0ELin1ELi1EEE.cold.16, symObjAddr: 0x11110, symBinAddr: 0x100028414, symSize: 0x24 }
  - { offsetInCU: 0x192B19, offset: 0x1E4578, size: 0x8, addend: 0x0, symName: __ZN4MSSM3setERKN5Eigen6MatrixIdLin1ELi1ELi0ELin1ELi1EEE.cold.2, symObjAddr: 0x10F18, symBinAddr: 0x10002821C, symSize: 0x24 }
  - { offsetInCU: 0x192B48, offset: 0x1E45A7, size: 0x8, addend: 0x0, symName: __ZN4MSSM3setERKN5Eigen6MatrixIdLin1ELi1ELi0ELin1ELi1EEE.cold.3, symObjAddr: 0x10F3C, symBinAddr: 0x100028240, symSize: 0x24 }
  - { offsetInCU: 0x192B77, offset: 0x1E45D6, size: 0x8, addend: 0x0, symName: __ZN4MSSM3setERKN5Eigen6MatrixIdLin1ELi1ELi0ELin1ELi1EEE.cold.14, symObjAddr: 0x110C8, symBinAddr: 0x1000283CC, symSize: 0x24 }
  - { offsetInCU: 0x192BA6, offset: 0x1E4605, size: 0x8, addend: 0x0, symName: __ZN4MSSM3setERKN5Eigen6MatrixIdLin1ELi1ELi0ELin1ELi1EEE.cold.13, symObjAddr: 0x110A4, symBinAddr: 0x1000283A8, symSize: 0x24 }
  - { offsetInCU: 0x192BD5, offset: 0x1E4634, size: 0x8, addend: 0x0, symName: __ZN4MSSM3setERKN5Eigen6MatrixIdLin1ELi1ELi0ELin1ELi1EEE.cold.5, symObjAddr: 0x10F84, symBinAddr: 0x100028288, symSize: 0x24 }
  - { offsetInCU: 0x192C04, offset: 0x1E4663, size: 0x8, addend: 0x0, symName: __ZN4MSSM3setERKN5Eigen6MatrixIdLin1ELi1ELi0ELin1ELi1EEE.cold.12, symObjAddr: 0x11080, symBinAddr: 0x100028384, symSize: 0x24 }
  - { offsetInCU: 0x192C33, offset: 0x1E4692, size: 0x8, addend: 0x0, symName: __ZN4MSSM3setERKN5Eigen6MatrixIdLin1ELi1ELi0ELin1ELi1EEE.cold.11, symObjAddr: 0x1105C, symBinAddr: 0x100028360, symSize: 0x24 }
  - { offsetInCU: 0x192C62, offset: 0x1E46C1, size: 0x8, addend: 0x0, symName: __ZN4MSSM3setERKN5Eigen6MatrixIdLin1ELi1ELi0ELin1ELi1EEE.cold.10, symObjAddr: 0x11038, symBinAddr: 0x10002833C, symSize: 0x24 }
  - { offsetInCU: 0x192C91, offset: 0x1E46F0, size: 0x8, addend: 0x0, symName: __ZN4MSSM3setERKN5Eigen6MatrixIdLin1ELi1ELi0ELin1ELi1EEE.cold.15, symObjAddr: 0x110EC, symBinAddr: 0x1000283F0, symSize: 0x24 }
  - { offsetInCU: 0x192CC0, offset: 0x1E471F, size: 0x8, addend: 0x0, symName: __ZN4MSSM3setERKN5Eigen6MatrixIdLin1ELi1ELi0ELin1ELi1EEE.cold.7, symObjAddr: 0x10FCC, symBinAddr: 0x1000282D0, symSize: 0x24 }
  - { offsetInCU: 0x192CEF, offset: 0x1E474E, size: 0x8, addend: 0x0, symName: __ZN4MSSM3setERKN5Eigen6MatrixIdLin1ELi1ELi0ELin1ELi1EEE.cold.8, symObjAddr: 0x10FF0, symBinAddr: 0x1000282F4, symSize: 0x24 }
  - { offsetInCU: 0x192D1E, offset: 0x1E477D, size: 0x8, addend: 0x0, symName: __ZN4MSSM3setERKN5Eigen6MatrixIdLin1ELi1ELi0ELin1ELi1EEE.cold.9, symObjAddr: 0x11014, symBinAddr: 0x100028318, symSize: 0x24 }
  - { offsetInCU: 0x1954C1, offset: 0x1E6F20, size: 0x8, addend: 0x0, symName: __ZN5Eigen8internal16binary_evaluatorINS_13CwiseBinaryOpINS0_13scalar_sum_opIddEEKNS2_IS4_KNS2_INS0_17scalar_product_opIddEEKNS_6MatrixIdLi3ELi3ELi0ELi3ELi3EEEKNS_14CwiseNullaryOpINS0_18scalar_constant_opIdEES9_EEEEKNS2_IS6_SE_KNS2_IS4_KNS2_IS4_KNS_7ProductIS8_S8_Li0EEESJ_EEKNS2_IS6_SE_KNS2_IS4_KNS2_IS4_KNSH_ISI_S8_Li0EEEKNS2_IS6_SE_S9_EEEES9_EEEEEEEEEESZ_EENS0_10IndexBasedES13_ddE4DataC2ERKS12_, symObjAddr: 0xE0F0, symBinAddr: 0x100017550, symSize: 0x340 }
  - { offsetInCU: 0x198B16, offset: 0x1EA575, size: 0x8, addend: 0x0, symName: __ZN5Eigen8internal30assignment_from_xpr_op_productINS_6MatrixIdLi3ELi3ELi0ELi3ELi3EEENS_13CwiseBinaryOpINS0_13scalar_sum_opIddEEKNS4_IS6_KNS4_IS6_KNS4_IS6_KNS4_INS0_17scalar_product_opIddEEKS3_KNS_14CwiseNullaryOpINS0_18scalar_constant_opIdEES9_EEEEKNS4_IS8_KNS4_IS8_SE_S9_EESE_EEEEKNS_7ProductISH_S3_Li0EEEEESP_EEKNSN_ISO_S3_Li0EEEEENSN_IS3_S3_Li0EEENS0_9assign_opIddEENS0_13add_assign_opIddEEE3runINS4_IS6_KSW_KSX_EESZ_EEvRS3_RKT_RKT0_, symObjAddr: 0xF64C, symBinAddr: 0x100018AAC, symSize: 0x2E0 }
  - { offsetInCU: 0x19A150, offset: 0x1EBBAF, size: 0x8, addend: 0x0, symName: __ZN5Eigen8internal30assignment_from_xpr_op_productINS_6MatrixIdLi3ELi3ELi0ELi3ELi3EEENS_13CwiseBinaryOpINS0_13scalar_sum_opIddEEKNS4_IS6_KNS4_INS0_17scalar_product_opIddEEKS3_KNS_14CwiseNullaryOpINS0_18scalar_constant_opIdEES9_EEEESG_EEKNS_7ProductINS4_IS8_SE_S9_EES3_Li0EEEEESL_NS0_9assign_opIddEENS0_13add_assign_opIddEEE3runINS4_IS6_KSN_SM_EESP_EEvRS3_RKT_RKT0_, symObjAddr: 0xFCA8, symBinAddr: 0x100019108, symSize: 0x364 }
  - { offsetInCU: 0x19A18D, offset: 0x1EBBEC, size: 0x8, addend: 0x0, symName: __ZN5Eigen8internal30assignment_from_xpr_op_productINS_6MatrixIdLi3ELi3ELi0ELi3ELi3EEENS_13CwiseBinaryOpINS0_13scalar_sum_opIddEEKNS4_IS6_KNS4_INS0_17scalar_product_opIddEEKS3_KNS_14CwiseNullaryOpINS0_18scalar_constant_opIdEES9_EEEESG_EEKNS_7ProductINS4_IS8_SE_S9_EES3_Li0EEEEESL_NS0_9assign_opIddEENS0_13add_assign_opIddEEE3runINS4_IS6_KSN_SM_EESP_EEvRS3_RKT_RKT0_, symObjAddr: 0xFCA8, symBinAddr: 0x100019108, symSize: 0x364 }
  - { offsetInCU: 0x19A1B9, offset: 0x1EBC18, size: 0x8, addend: 0x0, symName: __ZN5Eigen8internal30assignment_from_xpr_op_productINS_6MatrixIdLi3ELi3ELi0ELi3ELi3EEENS_13CwiseBinaryOpINS0_13scalar_sum_opIddEEKNS4_IS6_KNS4_INS0_17scalar_product_opIddEEKS3_KNS_14CwiseNullaryOpINS0_18scalar_constant_opIdEES9_EEEESG_EEKNS_7ProductINS4_IS8_SE_S9_EES3_Li0EEEEESL_NS0_9assign_opIddEENS0_13add_assign_opIddEEE3runINS4_IS6_KSN_SM_EESP_EEvRS3_RKT_RKT0_, symObjAddr: 0xFCA8, symBinAddr: 0x100019108, symSize: 0x364 }
  - { offsetInCU: 0x19A1DE, offset: 0x1EBC3D, size: 0x8, addend: 0x0, symName: __ZN5Eigen8internal30assignment_from_xpr_op_productINS_6MatrixIdLi3ELi3ELi0ELi3ELi3EEENS_13CwiseBinaryOpINS0_13scalar_sum_opIddEEKNS4_IS6_KNS4_INS0_17scalar_product_opIddEEKS3_KNS_14CwiseNullaryOpINS0_18scalar_constant_opIdEES9_EEEESG_EEKNS_7ProductINS4_IS8_SE_S9_EES3_Li0EEEEESL_NS0_9assign_opIddEENS0_13add_assign_opIddEEE3runINS4_IS6_KSN_SM_EESP_EEvRS3_RKT_RKT0_, symObjAddr: 0xFCA8, symBinAddr: 0x100019108, symSize: 0x364 }
  - { offsetInCU: 0x19A20C, offset: 0x1EBC6B, size: 0x8, addend: 0x0, symName: __ZN5Eigen8internal30assignment_from_xpr_op_productINS_6MatrixIdLi3ELi3ELi0ELi3ELi3EEENS_13CwiseBinaryOpINS0_13scalar_sum_opIddEEKNS4_IS6_KNS4_INS0_17scalar_product_opIddEEKS3_KNS_14CwiseNullaryOpINS0_18scalar_constant_opIdEES9_EEEESG_EEKNS_7ProductINS4_IS8_SE_S9_EES3_Li0EEEEESL_NS0_9assign_opIddEENS0_13add_assign_opIddEEE3runINS4_IS6_KSN_SM_EESP_EEvRS3_RKT_RKT0_, symObjAddr: 0xFCA8, symBinAddr: 0x100019108, symSize: 0x364 }
  - { offsetInCU: 0x19A233, offset: 0x1EBC92, size: 0x8, addend: 0x0, symName: __ZN5Eigen8internal30assignment_from_xpr_op_productINS_6MatrixIdLi3ELi3ELi0ELi3ELi3EEENS_13CwiseBinaryOpINS0_13scalar_sum_opIddEEKNS4_IS6_KNS4_INS0_17scalar_product_opIddEEKS3_KNS_14CwiseNullaryOpINS0_18scalar_constant_opIdEES9_EEEESG_EEKNS_7ProductINS4_IS8_SE_S9_EES3_Li0EEEEESL_NS0_9assign_opIddEENS0_13add_assign_opIddEEE3runINS4_IS6_KSN_SM_EESP_EEvRS3_RKT_RKT0_, symObjAddr: 0xFCA8, symBinAddr: 0x100019108, symSize: 0x364 }
  - { offsetInCU: 0x19A278, offset: 0x1EBCD7, size: 0x8, addend: 0x0, symName: __ZN5Eigen8internal30assignment_from_xpr_op_productINS_6MatrixIdLi3ELi3ELi0ELi3ELi3EEENS_13CwiseBinaryOpINS0_13scalar_sum_opIddEEKNS4_IS6_KNS4_INS0_17scalar_product_opIddEEKS3_KNS_14CwiseNullaryOpINS0_18scalar_constant_opIdEES9_EEEESG_EEKNS_7ProductINS4_IS8_SE_S9_EES3_Li0EEEEESL_NS0_9assign_opIddEENS0_13add_assign_opIddEEE3runINS4_IS6_KSN_SM_EESP_EEvRS3_RKT_RKT0_, symObjAddr: 0xFCA8, symBinAddr: 0x100019108, symSize: 0x364 }
  - { offsetInCU: 0x19A298, offset: 0x1EBCF7, size: 0x8, addend: 0x0, symName: __ZN5Eigen8internal30assignment_from_xpr_op_productINS_6MatrixIdLi3ELi3ELi0ELi3ELi3EEENS_13CwiseBinaryOpINS0_13scalar_sum_opIddEEKNS4_IS6_KNS4_INS0_17scalar_product_opIddEEKS3_KNS_14CwiseNullaryOpINS0_18scalar_constant_opIdEES9_EEEESG_EEKNS_7ProductINS4_IS8_SE_S9_EES3_Li0EEEEESL_NS0_9assign_opIddEENS0_13add_assign_opIddEEE3runINS4_IS6_KSN_SM_EESP_EEvRS3_RKT_RKT0_, symObjAddr: 0xFCA8, symBinAddr: 0x100019108, symSize: 0x364 }
  - { offsetInCU: 0x19A2B8, offset: 0x1EBD17, size: 0x8, addend: 0x0, symName: __ZN5Eigen8internal30assignment_from_xpr_op_productINS_6MatrixIdLi3ELi3ELi0ELi3ELi3EEENS_13CwiseBinaryOpINS0_13scalar_sum_opIddEEKNS4_IS6_KNS4_INS0_17scalar_product_opIddEEKS3_KNS_14CwiseNullaryOpINS0_18scalar_constant_opIdEES9_EEEESG_EEKNS_7ProductINS4_IS8_SE_S9_EES3_Li0EEEEESL_NS0_9assign_opIddEENS0_13add_assign_opIddEEE3runINS4_IS6_KSN_SM_EESP_EEvRS3_RKT_RKT0_, symObjAddr: 0xFCA8, symBinAddr: 0x100019108, symSize: 0x364 }
  - { offsetInCU: 0x19A2D8, offset: 0x1EBD37, size: 0x8, addend: 0x0, symName: __ZN5Eigen8internal30assignment_from_xpr_op_productINS_6MatrixIdLi3ELi3ELi0ELi3ELi3EEENS_13CwiseBinaryOpINS0_13scalar_sum_opIddEEKNS4_IS6_KNS4_INS0_17scalar_product_opIddEEKS3_KNS_14CwiseNullaryOpINS0_18scalar_constant_opIdEES9_EEEESG_EEKNS_7ProductINS4_IS8_SE_S9_EES3_Li0EEEEESL_NS0_9assign_opIddEENS0_13add_assign_opIddEEE3runINS4_IS6_KSN_SM_EESP_EEvRS3_RKT_RKT0_, symObjAddr: 0xFCA8, symBinAddr: 0x100019108, symSize: 0x364 }
  - { offsetInCU: 0x19A2F8, offset: 0x1EBD57, size: 0x8, addend: 0x0, symName: __ZN5Eigen8internal30assignment_from_xpr_op_productINS_6MatrixIdLi3ELi3ELi0ELi3ELi3EEENS_13CwiseBinaryOpINS0_13scalar_sum_opIddEEKNS4_IS6_KNS4_INS0_17scalar_product_opIddEEKS3_KNS_14CwiseNullaryOpINS0_18scalar_constant_opIdEES9_EEEESG_EEKNS_7ProductINS4_IS8_SE_S9_EES3_Li0EEEEESL_NS0_9assign_opIddEENS0_13add_assign_opIddEEE3runINS4_IS6_KSN_SM_EESP_EEvRS3_RKT_RKT0_, symObjAddr: 0xFCA8, symBinAddr: 0x100019108, symSize: 0x364 }
  - { offsetInCU: 0x19A318, offset: 0x1EBD77, size: 0x8, addend: 0x0, symName: __ZN5Eigen8internal30assignment_from_xpr_op_productINS_6MatrixIdLi3ELi3ELi0ELi3ELi3EEENS_13CwiseBinaryOpINS0_13scalar_sum_opIddEEKNS4_IS6_KNS4_INS0_17scalar_product_opIddEEKS3_KNS_14CwiseNullaryOpINS0_18scalar_constant_opIdEES9_EEEESG_EEKNS_7ProductINS4_IS8_SE_S9_EES3_Li0EEEEESL_NS0_9assign_opIddEENS0_13add_assign_opIddEEE3runINS4_IS6_KSN_SM_EESP_EEvRS3_RKT_RKT0_, symObjAddr: 0xFCA8, symBinAddr: 0x100019108, symSize: 0x364 }
  - { offsetInCU: 0x19A336, offset: 0x1EBD95, size: 0x8, addend: 0x0, symName: __ZN5Eigen8internal30assignment_from_xpr_op_productINS_6MatrixIdLi3ELi3ELi0ELi3ELi3EEENS_13CwiseBinaryOpINS0_13scalar_sum_opIddEEKNS4_IS6_KNS4_INS0_17scalar_product_opIddEEKS3_KNS_14CwiseNullaryOpINS0_18scalar_constant_opIdEES9_EEEESG_EEKNS_7ProductINS4_IS8_SE_S9_EES3_Li0EEEEESL_NS0_9assign_opIddEENS0_13add_assign_opIddEEE3runINS4_IS6_KSN_SM_EESP_EEvRS3_RKT_RKT0_, symObjAddr: 0xFCA8, symBinAddr: 0x100019108, symSize: 0x364 }
  - { offsetInCU: 0x19A353, offset: 0x1EBDB2, size: 0x8, addend: 0x0, symName: __ZN5Eigen8internal30assignment_from_xpr_op_productINS_6MatrixIdLi3ELi3ELi0ELi3ELi3EEENS_13CwiseBinaryOpINS0_13scalar_sum_opIddEEKNS4_IS6_KNS4_INS0_17scalar_product_opIddEEKS3_KNS_14CwiseNullaryOpINS0_18scalar_constant_opIdEES9_EEEESG_EEKNS_7ProductINS4_IS8_SE_S9_EES3_Li0EEEEESL_NS0_9assign_opIddEENS0_13add_assign_opIddEEE3runINS4_IS6_KSN_SM_EESP_EEvRS3_RKT_RKT0_, symObjAddr: 0xFCA8, symBinAddr: 0x100019108, symSize: 0x364 }
  - { offsetInCU: 0x19A370, offset: 0x1EBDCF, size: 0x8, addend: 0x0, symName: __ZN5Eigen8internal30assignment_from_xpr_op_productINS_6MatrixIdLi3ELi3ELi0ELi3ELi3EEENS_13CwiseBinaryOpINS0_13scalar_sum_opIddEEKNS4_IS6_KNS4_INS0_17scalar_product_opIddEEKS3_KNS_14CwiseNullaryOpINS0_18scalar_constant_opIdEES9_EEEESG_EEKNS_7ProductINS4_IS8_SE_S9_EES3_Li0EEEEESL_NS0_9assign_opIddEENS0_13add_assign_opIddEEE3runINS4_IS6_KSN_SM_EESP_EEvRS3_RKT_RKT0_, symObjAddr: 0xFCA8, symBinAddr: 0x100019108, symSize: 0x364 }
  - { offsetInCU: 0x19A38E, offset: 0x1EBDED, size: 0x8, addend: 0x0, symName: __ZN5Eigen8internal30assignment_from_xpr_op_productINS_6MatrixIdLi3ELi3ELi0ELi3ELi3EEENS_13CwiseBinaryOpINS0_13scalar_sum_opIddEEKNS4_IS6_KNS4_INS0_17scalar_product_opIddEEKS3_KNS_14CwiseNullaryOpINS0_18scalar_constant_opIdEES9_EEEESG_EEKNS_7ProductINS4_IS8_SE_S9_EES3_Li0EEEEESL_NS0_9assign_opIddEENS0_13add_assign_opIddEEE3runINS4_IS6_KSN_SM_EESP_EEvRS3_RKT_RKT0_, symObjAddr: 0xFCA8, symBinAddr: 0x100019108, symSize: 0x364 }
  - { offsetInCU: 0x19A3AC, offset: 0x1EBE0B, size: 0x8, addend: 0x0, symName: __ZN5Eigen8internal30assignment_from_xpr_op_productINS_6MatrixIdLi3ELi3ELi0ELi3ELi3EEENS_13CwiseBinaryOpINS0_13scalar_sum_opIddEEKNS4_IS6_KNS4_INS0_17scalar_product_opIddEEKS3_KNS_14CwiseNullaryOpINS0_18scalar_constant_opIdEES9_EEEESG_EEKNS_7ProductINS4_IS8_SE_S9_EES3_Li0EEEEESL_NS0_9assign_opIddEENS0_13add_assign_opIddEEE3runINS4_IS6_KSN_SM_EESP_EEvRS3_RKT_RKT0_, symObjAddr: 0xFCA8, symBinAddr: 0x100019108, symSize: 0x364 }
  - { offsetInCU: 0x19A3CA, offset: 0x1EBE29, size: 0x8, addend: 0x0, symName: __ZN5Eigen8internal30assignment_from_xpr_op_productINS_6MatrixIdLi3ELi3ELi0ELi3ELi3EEENS_13CwiseBinaryOpINS0_13scalar_sum_opIddEEKNS4_IS6_KNS4_INS0_17scalar_product_opIddEEKS3_KNS_14CwiseNullaryOpINS0_18scalar_constant_opIdEES9_EEEESG_EEKNS_7ProductINS4_IS8_SE_S9_EES3_Li0EEEEESL_NS0_9assign_opIddEENS0_13add_assign_opIddEEE3runINS4_IS6_KSN_SM_EESP_EEvRS3_RKT_RKT0_, symObjAddr: 0xFCA8, symBinAddr: 0x100019108, symSize: 0x364 }
  - { offsetInCU: 0x19C3EF, offset: 0x1EDE4E, size: 0x8, addend: 0x0, symName: __ZNK4MSSM4betaEv.cold.1, symObjAddr: 0x11158, symBinAddr: 0x10002845C, symSize: 0x24 }
  - { offsetInCU: 0x19C4B8, offset: 0x1EDF17, size: 0x8, addend: 0x0, symName: __ZNK4MSSM4betaEv.cold.2, symObjAddr: 0x1117C, symBinAddr: 0x100028480, symSize: 0x24 }
  - { offsetInCU: 0x19C581, offset: 0x1EDFE0, size: 0x8, addend: 0x0, symName: __ZNK4MSSM4betaEv.cold.3, symObjAddr: 0x111A0, symBinAddr: 0x1000284A4, symSize: 0x24 }
  - { offsetInCU: 0x19C64A, offset: 0x1EE0A9, size: 0x8, addend: 0x0, symName: __ZN4MSSMD1Ev, symObjAddr: 0xB244, symBinAddr: 0x100014A30, symSize: 0x7C }
  - { offsetInCU: 0x19FF55, offset: 0x1F19B4, size: 0x8, addend: 0x0, symName: __ZN5Eigen8internal16binary_evaluatorINS_13CwiseBinaryOpINS0_13scalar_sum_opIddEEKNS_7ProductINS2_INS0_17scalar_product_opIddEEKNS_14CwiseNullaryOpINS0_18scalar_constant_opIdEEKNS_6MatrixIdLi3ELi3ELi0ELi3ELi3EEEEESD_EESC_Li0EEEKNS2_IS7_SF_KNS5_INS5_ISC_SC_Li0EEESC_Li0EEEEEEENS0_10IndexBasedESP_ddE4DataC2ERKSO_, symObjAddr: 0x103FC, symBinAddr: 0x10001985C, symSize: 0x2C8 }
  - { offsetInCU: 0x19FF8F, offset: 0x1F19EE, size: 0x8, addend: 0x0, symName: __ZN5Eigen8internal16binary_evaluatorINS_13CwiseBinaryOpINS0_13scalar_sum_opIddEEKNS_7ProductINS2_INS0_17scalar_product_opIddEEKNS_14CwiseNullaryOpINS0_18scalar_constant_opIdEEKNS_6MatrixIdLi3ELi3ELi0ELi3ELi3EEEEESD_EESC_Li0EEEKNS2_IS7_SF_KNS5_INS5_ISC_SC_Li0EEESC_Li0EEEEEEENS0_10IndexBasedESP_ddE4DataC2ERKSO_, symObjAddr: 0x103FC, symBinAddr: 0x10001985C, symSize: 0x2C8 }
  - { offsetInCU: 0x19FFB6, offset: 0x1F1A15, size: 0x8, addend: 0x0, symName: __ZN5Eigen8internal16binary_evaluatorINS_13CwiseBinaryOpINS0_13scalar_sum_opIddEEKNS_7ProductINS2_INS0_17scalar_product_opIddEEKNS_14CwiseNullaryOpINS0_18scalar_constant_opIdEEKNS_6MatrixIdLi3ELi3ELi0ELi3ELi3EEEEESD_EESC_Li0EEEKNS2_IS7_SF_KNS5_INS5_ISC_SC_Li0EEESC_Li0EEEEEEENS0_10IndexBasedESP_ddE4DataC2ERKSO_, symObjAddr: 0x103FC, symBinAddr: 0x10001985C, symSize: 0x2C8 }
  - { offsetInCU: 0x19FFDC, offset: 0x1F1A3B, size: 0x8, addend: 0x0, symName: __ZN5Eigen8internal16binary_evaluatorINS_13CwiseBinaryOpINS0_13scalar_sum_opIddEEKNS_7ProductINS2_INS0_17scalar_product_opIddEEKNS_14CwiseNullaryOpINS0_18scalar_constant_opIdEEKNS_6MatrixIdLi3ELi3ELi0ELi3ELi3EEEEESD_EESC_Li0EEEKNS2_IS7_SF_KNS5_INS5_ISC_SC_Li0EEESC_Li0EEEEEEENS0_10IndexBasedESP_ddE4DataC2ERKSO_, symObjAddr: 0x103FC, symBinAddr: 0x10001985C, symSize: 0x2C8 }
  - { offsetInCU: 0x1A0002, offset: 0x1F1A61, size: 0x8, addend: 0x0, symName: __ZN5Eigen8internal16binary_evaluatorINS_13CwiseBinaryOpINS0_13scalar_sum_opIddEEKNS_7ProductINS2_INS0_17scalar_product_opIddEEKNS_14CwiseNullaryOpINS0_18scalar_constant_opIdEEKNS_6MatrixIdLi3ELi3ELi0ELi3ELi3EEEEESD_EESC_Li0EEEKNS2_IS7_SF_KNS5_INS5_ISC_SC_Li0EEESC_Li0EEEEEEENS0_10IndexBasedESP_ddE4DataC2ERKSO_, symObjAddr: 0x103FC, symBinAddr: 0x10001985C, symSize: 0x2C8 }
  - { offsetInCU: 0x1A187F, offset: 0x1F32DE, size: 0x8, addend: 0x0, symName: __ZNK4MSSM25anomalousDimensionTwoLoopERN5Eigen6MatrixIdLi3ELi3ELi0ELi3ELi3EEES3_S3_S3_S3_RNS1_IdLi3ELi1ELi0ELi3ELi1EEERdS6_.cold.1, symObjAddr: 0x111C4, symBinAddr: 0x1000284C8, symSize: 0x24 }
  - { offsetInCU: 0x1A1948, offset: 0x1F33A7, size: 0x8, addend: 0x0, symName: __ZNK4MSSM25anomalousDimensionTwoLoopERN5Eigen6MatrixIdLi3ELi3ELi0ELi3ELi3EEES3_S3_S3_S3_RNS1_IdLi3ELi1ELi0ELi3ELi1EEERdS6_.cold.2, symObjAddr: 0x111E8, symBinAddr: 0x1000284EC, symSize: 0x24 }
  - { offsetInCU: 0x1A1A11, offset: 0x1F3470, size: 0x8, addend: 0x0, symName: __ZN4MSSM10runtoMsusyEv, symObjAddr: 0xCDC0, symBinAddr: 0x1000165AC, symSize: 0xA4 }
  - { offsetInCU: 0x1A1A69, offset: 0x1F34C8, size: 0x8, addend: 0x0, symName: __ZN4MSSMD0Ev, symObjAddr: 0xCE64, symBinAddr: 0x100016650, symSize: 0x7C }
  - { offsetInCU: 0x1A1F8B, offset: 0x1F39EA, size: 0x8, addend: 0x0, symName: __ZNK3RGE14isPerturbativeEv, symObjAddr: 0xCEE0, symBinAddr: 0x1000166CC, symSize: 0x8 }
  - { offsetInCU: 0x1A1FB7, offset: 0x1F3A16, size: 0x8, addend: 0x0, symName: __ZN5Eigen8internal28conditional_aligned_new_autoIdLb1EEEPT_m.cold.1, symObjAddr: 0x1120C, symBinAddr: 0x100028510, symSize: 0x28 }
  - { offsetInCU: 0x1A2002, offset: 0x1F3A61, size: 0x8, addend: 0x0, symName: __ZN5Eigen8internal28conditional_aligned_new_autoIiLb1EEEPT_m.cold.1, symObjAddr: 0x11234, symBinAddr: 0x100028538, symSize: 0x28 }
  - { offsetInCU: 0x1A208A, offset: 0x1F3AE9, size: 0x8, addend: 0x0, symName: __ZN5Eigen8internal17resize_if_allowedINS_6MatrixIdLin1ELin1ELi0ELin1ELin1EEES3_ddEEvRT_RKT0_RKNS0_9assign_opIT1_T2_EE.cold.1, symObjAddr: 0x1125C, symBinAddr: 0x100028560, symSize: 0x28 }
  - { offsetInCU: 0x1A20B9, offset: 0x1F3B18, size: 0x8, addend: 0x0, symName: '__ZNSt3__110__function6__funcIZN4MSSMC1EvE3$_0NS_9allocatorIS3_EEFN5Eigen6MatrixIdLi3ELi1ELi0ELi3ELi1EEEdEED1Ev', symObjAddr: 0xD214, symBinAddr: 0x1000169F4, symSize: 0x4 }
  - { offsetInCU: 0x1A20E5, offset: 0x1F3B44, size: 0x8, addend: 0x0, symName: '__ZNSt3__110__function6__funcIZN4MSSMC1EvE3$_0NS_9allocatorIS3_EEFN5Eigen6MatrixIdLi3ELi1ELi0ELi3ELi1EEEdEED0Ev', symObjAddr: 0xD218, symBinAddr: 0x1000169F8, symSize: 0x4 }
  - { offsetInCU: 0x1A219B, offset: 0x1F3BFA, size: 0x8, addend: 0x0, symName: '__ZNKSt3__110__function6__funcIZN4MSSMC1EvE3$_0NS_9allocatorIS3_EEFN5Eigen6MatrixIdLi3ELi1ELi0ELi3ELi1EEEdEE7__cloneEv', symObjAddr: 0xD21C, symBinAddr: 0x1000169FC, symSize: 0x24 }
  - { offsetInCU: 0x1A22E0, offset: 0x1F3D3F, size: 0x8, addend: 0x0, symName: '__ZNKSt3__110__function6__funcIZN4MSSMC1EvE3$_0NS_9allocatorIS3_EEFN5Eigen6MatrixIdLi3ELi1ELi0ELi3ELi1EEEdEE7__cloneEPNS0_6__baseIS9_EE', symObjAddr: 0xD240, symBinAddr: 0x100016A20, symSize: 0x10 }
  - { offsetInCU: 0x1A2316, offset: 0x1F3D75, size: 0x8, addend: 0x0, symName: '__ZNKSt3__110__function6__funcIZN4MSSMC1EvE3$_0NS_9allocatorIS3_EEFN5Eigen6MatrixIdLi3ELi1ELi0ELi3ELi1EEEdEE7__cloneEPNS0_6__baseIS9_EE', symObjAddr: 0xD240, symBinAddr: 0x100016A20, symSize: 0x10 }
  - { offsetInCU: 0x1A2332, offset: 0x1F3D91, size: 0x8, addend: 0x0, symName: '__ZNKSt3__110__function6__funcIZN4MSSMC1EvE3$_0NS_9allocatorIS3_EEFN5Eigen6MatrixIdLi3ELi1ELi0ELi3ELi1EEEdEE7__cloneEPNS0_6__baseIS9_EE', symObjAddr: 0xD240, symBinAddr: 0x100016A20, symSize: 0x10 }
  - { offsetInCU: 0x1A234E, offset: 0x1F3DAD, size: 0x8, addend: 0x0, symName: '__ZNSt3__110__function6__funcIZN4MSSMC1EvE3$_0NS_9allocatorIS3_EEFN5Eigen6MatrixIdLi3ELi1ELi0ELi3ELi1EEEdEE7destroyEv', symObjAddr: 0xD250, symBinAddr: 0x100016A30, symSize: 0x4 }
  - { offsetInCU: 0x1A239F, offset: 0x1F3DFE, size: 0x8, addend: 0x0, symName: '__ZNSt3__110__function6__funcIZN4MSSMC1EvE3$_0NS_9allocatorIS3_EEFN5Eigen6MatrixIdLi3ELi1ELi0ELi3ELi1EEEdEE18destroy_deallocateEv', symObjAddr: 0xD254, symBinAddr: 0x100016A34, symSize: 0x4 }
  - { offsetInCU: 0x1A23D4, offset: 0x1F3E33, size: 0x8, addend: 0x0, symName: '__ZNSt3__110__function6__funcIZN4MSSMC1EvE3$_0NS_9allocatorIS3_EEFN5Eigen6MatrixIdLi3ELi1ELi0ELi3ELi1EEEdEE18destroy_deallocateEv', symObjAddr: 0xD254, symBinAddr: 0x100016A34, symSize: 0x4 }
  - { offsetInCU: 0x1A23F6, offset: 0x1F3E55, size: 0x8, addend: 0x0, symName: '__ZNSt3__110__function6__funcIZN4MSSMC1EvE3$_0NS_9allocatorIS3_EEFN5Eigen6MatrixIdLi3ELi1ELi0ELi3ELi1EEEdEE18destroy_deallocateEv', symObjAddr: 0xD254, symBinAddr: 0x100016A34, symSize: 0x4 }
  - { offsetInCU: 0x1A2421, offset: 0x1F3E80, size: 0x8, addend: 0x0, symName: '__ZNSt3__110__function6__funcIZN4MSSMC1EvE3$_0NS_9allocatorIS3_EEFN5Eigen6MatrixIdLi3ELi1ELi0ELi3ELi1EEEdEE18destroy_deallocateEv', symObjAddr: 0xD254, symBinAddr: 0x100016A34, symSize: 0x4 }
  - { offsetInCU: 0x1A2447, offset: 0x1F3EA6, size: 0x8, addend: 0x0, symName: '__ZNSt3__110__function6__funcIZN4MSSMC1EvE3$_0NS_9allocatorIS3_EEFN5Eigen6MatrixIdLi3ELi1ELi0ELi3ELi1EEEdEE18destroy_deallocateEv', symObjAddr: 0xD254, symBinAddr: 0x100016A34, symSize: 0x4 }
  - { offsetInCU: 0x1A2518, offset: 0x1F3F77, size: 0x8, addend: 0x0, symName: '__ZNSt3__110__function6__funcIZN4MSSMC1EvE3$_0NS_9allocatorIS3_EEFN5Eigen6MatrixIdLi3ELi1ELi0ELi3ELi1EEEdEEclEOd', symObjAddr: 0xD258, symBinAddr: 0x100016A38, symSize: 0xC }
  - { offsetInCU: 0x1A254B, offset: 0x1F3FAA, size: 0x8, addend: 0x0, symName: '__ZNSt3__110__function6__funcIZN4MSSMC1EvE3$_0NS_9allocatorIS3_EEFN5Eigen6MatrixIdLi3ELi1ELi0ELi3ELi1EEEdEEclEOd', symObjAddr: 0xD258, symBinAddr: 0x100016A38, symSize: 0xC }
  - { offsetInCU: 0x1A2560, offset: 0x1F3FBF, size: 0x8, addend: 0x0, symName: '__ZNSt3__110__function6__funcIZN4MSSMC1EvE3$_0NS_9allocatorIS3_EEFN5Eigen6MatrixIdLi3ELi1ELi0ELi3ELi1EEEdEEclEOd', symObjAddr: 0xD258, symBinAddr: 0x100016A38, symSize: 0xC }
  - { offsetInCU: 0x1A2574, offset: 0x1F3FD3, size: 0x8, addend: 0x0, symName: '__ZNSt3__110__function6__funcIZN4MSSMC1EvE3$_0NS_9allocatorIS3_EEFN5Eigen6MatrixIdLi3ELi1ELi0ELi3ELi1EEEdEEclEOd', symObjAddr: 0xD258, symBinAddr: 0x100016A38, symSize: 0xC }
  - { offsetInCU: 0x1A2589, offset: 0x1F3FE8, size: 0x8, addend: 0x0, symName: '__ZNSt3__110__function6__funcIZN4MSSMC1EvE3$_0NS_9allocatorIS3_EEFN5Eigen6MatrixIdLi3ELi1ELi0ELi3ELi1EEEdEEclEOd', symObjAddr: 0xD258, symBinAddr: 0x100016A38, symSize: 0xC }
  - { offsetInCU: 0x1A25A7, offset: 0x1F4006, size: 0x8, addend: 0x0, symName: '__ZNSt3__110__function6__funcIZN4MSSMC1EvE3$_0NS_9allocatorIS3_EEFN5Eigen6MatrixIdLi3ELi1ELi0ELi3ELi1EEEdEEclEOd', symObjAddr: 0xD258, symBinAddr: 0x100016A38, symSize: 0xC }
  - { offsetInCU: 0x1A2618, offset: 0x1F4077, size: 0x8, addend: 0x0, symName: '__ZNKSt3__110__function6__funcIZN4MSSMC1EvE3$_0NS_9allocatorIS3_EEFN5Eigen6MatrixIdLi3ELi1ELi0ELi3ELi1EEEdEE6targetERKSt9type_info', symObjAddr: 0xD264, symBinAddr: 0x100016A44, symSize: 0x60 }
  - { offsetInCU: 0x1A269E, offset: 0x1F40FD, size: 0x8, addend: 0x0, symName: '__ZNKSt3__110__function6__funcIZN4MSSMC1EvE3$_0NS_9allocatorIS3_EEFN5Eigen6MatrixIdLi3ELi1ELi0ELi3ELi1EEEdEE11target_typeEv', symObjAddr: 0xD2C4, symBinAddr: 0x100016AA4, symSize: 0xC }
  - { offsetInCU: 0x1A26C3, offset: 0x1F4122, size: 0x8, addend: 0x0, symName: '__ZNSt3__110__function6__funcIZN4MSSMC1EdRKN5Eigen6MatrixIdLi3ELi3ELi0ELi3ELi3EEES7_S7_RKNS4_IdLi3ELi1ELi0ELi3ELi1EEEddiSA_S7_S7_S7_S7_S7_S7_S7_S7_dddE3$_1NS_9allocatorISB_EEFS8_dEED1Ev', symObjAddr: 0xD2D0, symBinAddr: 0x100016AB0, symSize: 0x4 }
  - { offsetInCU: 0x1A26EF, offset: 0x1F414E, size: 0x8, addend: 0x0, symName: '__ZNSt3__110__function6__funcIZN4MSSMC1EdRKN5Eigen6MatrixIdLi3ELi3ELi0ELi3ELi3EEES7_S7_RKNS4_IdLi3ELi1ELi0ELi3ELi1EEEddiSA_S7_S7_S7_S7_S7_S7_S7_S7_dddE3$_1NS_9allocatorISB_EEFS8_dEED0Ev', symObjAddr: 0xD2D4, symBinAddr: 0x100016AB4, symSize: 0x4 }
  - { offsetInCU: 0x1A27A5, offset: 0x1F4204, size: 0x8, addend: 0x0, symName: '__ZNKSt3__110__function6__funcIZN4MSSMC1EdRKN5Eigen6MatrixIdLi3ELi3ELi0ELi3ELi3EEES7_S7_RKNS4_IdLi3ELi1ELi0ELi3ELi1EEEddiSA_S7_S7_S7_S7_S7_S7_S7_S7_dddE3$_1NS_9allocatorISB_EEFS8_dEE7__cloneEv', symObjAddr: 0xD2D8, symBinAddr: 0x100016AB8, symSize: 0x24 }
  - { offsetInCU: 0x1A28EA, offset: 0x1F4349, size: 0x8, addend: 0x0, symName: '__ZNKSt3__110__function6__funcIZN4MSSMC1EdRKN5Eigen6MatrixIdLi3ELi3ELi0ELi3ELi3EEES7_S7_RKNS4_IdLi3ELi1ELi0ELi3ELi1EEEddiSA_S7_S7_S7_S7_S7_S7_S7_S7_dddE3$_1NS_9allocatorISB_EEFS8_dEE7__cloneEPNS0_6__baseISE_EE', symObjAddr: 0xD2FC, symBinAddr: 0x100016ADC, symSize: 0x10 }
  - { offsetInCU: 0x1A2920, offset: 0x1F437F, size: 0x8, addend: 0x0, symName: '__ZNKSt3__110__function6__funcIZN4MSSMC1EdRKN5Eigen6MatrixIdLi3ELi3ELi0ELi3ELi3EEES7_S7_RKNS4_IdLi3ELi1ELi0ELi3ELi1EEEddiSA_S7_S7_S7_S7_S7_S7_S7_S7_dddE3$_1NS_9allocatorISB_EEFS8_dEE7__cloneEPNS0_6__baseISE_EE', symObjAddr: 0xD2FC, symBinAddr: 0x100016ADC, symSize: 0x10 }
  - { offsetInCU: 0x1A293C, offset: 0x1F439B, size: 0x8, addend: 0x0, symName: '__ZNKSt3__110__function6__funcIZN4MSSMC1EdRKN5Eigen6MatrixIdLi3ELi3ELi0ELi3ELi3EEES7_S7_RKNS4_IdLi3ELi1ELi0ELi3ELi1EEEddiSA_S7_S7_S7_S7_S7_S7_S7_S7_dddE3$_1NS_9allocatorISB_EEFS8_dEE7__cloneEPNS0_6__baseISE_EE', symObjAddr: 0xD2FC, symBinAddr: 0x100016ADC, symSize: 0x10 }
  - { offsetInCU: 0x1A2958, offset: 0x1F43B7, size: 0x8, addend: 0x0, symName: '__ZNSt3__110__function6__funcIZN4MSSMC1EdRKN5Eigen6MatrixIdLi3ELi3ELi0ELi3ELi3EEES7_S7_RKNS4_IdLi3ELi1ELi0ELi3ELi1EEEddiSA_S7_S7_S7_S7_S7_S7_S7_S7_dddE3$_1NS_9allocatorISB_EEFS8_dEE7destroyEv', symObjAddr: 0xD30C, symBinAddr: 0x100016AEC, symSize: 0x4 }
  - { offsetInCU: 0x1A29A9, offset: 0x1F4408, size: 0x8, addend: 0x0, symName: '__ZNSt3__110__function6__funcIZN4MSSMC1EdRKN5Eigen6MatrixIdLi3ELi3ELi0ELi3ELi3EEES7_S7_RKNS4_IdLi3ELi1ELi0ELi3ELi1EEEddiSA_S7_S7_S7_S7_S7_S7_S7_S7_dddE3$_1NS_9allocatorISB_EEFS8_dEE18destroy_deallocateEv', symObjAddr: 0xD310, symBinAddr: 0x100016AF0, symSize: 0x4 }
  - { offsetInCU: 0x1A29DE, offset: 0x1F443D, size: 0x8, addend: 0x0, symName: '__ZNSt3__110__function6__funcIZN4MSSMC1EdRKN5Eigen6MatrixIdLi3ELi3ELi0ELi3ELi3EEES7_S7_RKNS4_IdLi3ELi1ELi0ELi3ELi1EEEddiSA_S7_S7_S7_S7_S7_S7_S7_S7_dddE3$_1NS_9allocatorISB_EEFS8_dEE18destroy_deallocateEv', symObjAddr: 0xD310, symBinAddr: 0x100016AF0, symSize: 0x4 }
  - { offsetInCU: 0x1A2A00, offset: 0x1F445F, size: 0x8, addend: 0x0, symName: '__ZNSt3__110__function6__funcIZN4MSSMC1EdRKN5Eigen6MatrixIdLi3ELi3ELi0ELi3ELi3EEES7_S7_RKNS4_IdLi3ELi1ELi0ELi3ELi1EEEddiSA_S7_S7_S7_S7_S7_S7_S7_S7_dddE3$_1NS_9allocatorISB_EEFS8_dEE18destroy_deallocateEv', symObjAddr: 0xD310, symBinAddr: 0x100016AF0, symSize: 0x4 }
  - { offsetInCU: 0x1A2A2B, offset: 0x1F448A, size: 0x8, addend: 0x0, symName: '__ZNSt3__110__function6__funcIZN4MSSMC1EdRKN5Eigen6MatrixIdLi3ELi3ELi0ELi3ELi3EEES7_S7_RKNS4_IdLi3ELi1ELi0ELi3ELi1EEEddiSA_S7_S7_S7_S7_S7_S7_S7_S7_dddE3$_1NS_9allocatorISB_EEFS8_dEE18destroy_deallocateEv', symObjAddr: 0xD310, symBinAddr: 0x100016AF0, symSize: 0x4 }
  - { offsetInCU: 0x1A2A51, offset: 0x1F44B0, size: 0x8, addend: 0x0, symName: '__ZNSt3__110__function6__funcIZN4MSSMC1EdRKN5Eigen6MatrixIdLi3ELi3ELi0ELi3ELi3EEES7_S7_RKNS4_IdLi3ELi1ELi0ELi3ELi1EEEddiSA_S7_S7_S7_S7_S7_S7_S7_S7_dddE3$_1NS_9allocatorISB_EEFS8_dEE18destroy_deallocateEv', symObjAddr: 0xD310, symBinAddr: 0x100016AF0, symSize: 0x4 }
  - { offsetInCU: 0x1A2AFC, offset: 0x1F455B, size: 0x8, addend: 0x0, symName: '__ZNSt3__110__function6__funcIZN4MSSMC1EdRKN5Eigen6MatrixIdLi3ELi3ELi0ELi3ELi3EEES7_S7_RKNS4_IdLi3ELi1ELi0ELi3ELi1EEEddiSA_S7_S7_S7_S7_S7_S7_S7_S7_dddE3$_1NS_9allocatorISB_EEFS8_dEEclEOd', symObjAddr: 0xD314, symBinAddr: 0x100016AF4, symSize: 0xC }
  - { offsetInCU: 0x1A2B2F, offset: 0x1F458E, size: 0x8, addend: 0x0, symName: '__ZNSt3__110__function6__funcIZN4MSSMC1EdRKN5Eigen6MatrixIdLi3ELi3ELi0ELi3ELi3EEES7_S7_RKNS4_IdLi3ELi1ELi0ELi3ELi1EEEddiSA_S7_S7_S7_S7_S7_S7_S7_S7_dddE3$_1NS_9allocatorISB_EEFS8_dEEclEOd', symObjAddr: 0xD314, symBinAddr: 0x100016AF4, symSize: 0xC }
  - { offsetInCU: 0x1A2B44, offset: 0x1F45A3, size: 0x8, addend: 0x0, symName: '__ZNSt3__110__function6__funcIZN4MSSMC1EdRKN5Eigen6MatrixIdLi3ELi3ELi0ELi3ELi3EEES7_S7_RKNS4_IdLi3ELi1ELi0ELi3ELi1EEEddiSA_S7_S7_S7_S7_S7_S7_S7_S7_dddE3$_1NS_9allocatorISB_EEFS8_dEEclEOd', symObjAddr: 0xD314, symBinAddr: 0x100016AF4, symSize: 0xC }
  - { offsetInCU: 0x1A2B58, offset: 0x1F45B7, size: 0x8, addend: 0x0, symName: '__ZNSt3__110__function6__funcIZN4MSSMC1EdRKN5Eigen6MatrixIdLi3ELi3ELi0ELi3ELi3EEES7_S7_RKNS4_IdLi3ELi1ELi0ELi3ELi1EEEddiSA_S7_S7_S7_S7_S7_S7_S7_S7_dddE3$_1NS_9allocatorISB_EEFS8_dEEclEOd', symObjAddr: 0xD314, symBinAddr: 0x100016AF4, symSize: 0xC }
  - { offsetInCU: 0x1A2B6D, offset: 0x1F45CC, size: 0x8, addend: 0x0, symName: '__ZNSt3__110__function6__funcIZN4MSSMC1EdRKN5Eigen6MatrixIdLi3ELi3ELi0ELi3ELi3EEES7_S7_RKNS4_IdLi3ELi1ELi0ELi3ELi1EEEddiSA_S7_S7_S7_S7_S7_S7_S7_S7_dddE3$_1NS_9allocatorISB_EEFS8_dEEclEOd', symObjAddr: 0xD314, symBinAddr: 0x100016AF4, symSize: 0xC }
  - { offsetInCU: 0x1A2B8B, offset: 0x1F45EA, size: 0x8, addend: 0x0, symName: '__ZNSt3__110__function6__funcIZN4MSSMC1EdRKN5Eigen6MatrixIdLi3ELi3ELi0ELi3ELi3EEES7_S7_RKNS4_IdLi3ELi1ELi0ELi3ELi1EEEddiSA_S7_S7_S7_S7_S7_S7_S7_S7_dddE3$_1NS_9allocatorISB_EEFS8_dEEclEOd', symObjAddr: 0xD314, symBinAddr: 0x100016AF4, symSize: 0xC }
  - { offsetInCU: 0x1A2BA2, offset: 0x1F4601, size: 0x8, addend: 0x0, symName: '__ZNKSt3__110__function6__funcIZN4MSSMC1EdRKN5Eigen6MatrixIdLi3ELi3ELi0ELi3ELi3EEES7_S7_RKNS4_IdLi3ELi1ELi0ELi3ELi1EEEddiSA_S7_S7_S7_S7_S7_S7_S7_S7_dddE3$_1NS_9allocatorISB_EEFS8_dEE6targetERKSt9type_info', symObjAddr: 0xD320, symBinAddr: 0x100016B00, symSize: 0x60 }
  - { offsetInCU: 0x1A2C28, offset: 0x1F4687, size: 0x8, addend: 0x0, symName: '__ZNKSt3__110__function6__funcIZN4MSSMC1EdRKN5Eigen6MatrixIdLi3ELi3ELi0ELi3ELi3EEES7_S7_RKNS4_IdLi3ELi1ELi0ELi3ELi1EEEddiSA_S7_S7_S7_S7_S7_S7_S7_S7_dddE3$_1NS_9allocatorISB_EEFS8_dEE11target_typeEv', symObjAddr: 0xD380, symBinAddr: 0x100016B60, symSize: 0xC }
  - { offsetInCU: 0x1A2C4D, offset: 0x1F46AC, size: 0x8, addend: 0x0, symName: '__ZNSt3__110__function6__funcIZN4MSSMC1EdiE3$_2NS_9allocatorIS3_EEFN5Eigen6MatrixIdLi3ELi1ELi0ELi3ELi1EEEdEED1Ev', symObjAddr: 0xD38C, symBinAddr: 0x100016B6C, symSize: 0x4 }
  - { offsetInCU: 0x1A2C79, offset: 0x1F46D8, size: 0x8, addend: 0x0, symName: '__ZNSt3__110__function6__funcIZN4MSSMC1EdiE3$_2NS_9allocatorIS3_EEFN5Eigen6MatrixIdLi3ELi1ELi0ELi3ELi1EEEdEED0Ev', symObjAddr: 0xD390, symBinAddr: 0x100016B70, symSize: 0x4 }
  - { offsetInCU: 0x1A2D2F, offset: 0x1F478E, size: 0x8, addend: 0x0, symName: '__ZNKSt3__110__function6__funcIZN4MSSMC1EdiE3$_2NS_9allocatorIS3_EEFN5Eigen6MatrixIdLi3ELi1ELi0ELi3ELi1EEEdEE7__cloneEv', symObjAddr: 0xD394, symBinAddr: 0x100016B74, symSize: 0x24 }
  - { offsetInCU: 0x1A2E74, offset: 0x1F48D3, size: 0x8, addend: 0x0, symName: '__ZNKSt3__110__function6__funcIZN4MSSMC1EdiE3$_2NS_9allocatorIS3_EEFN5Eigen6MatrixIdLi3ELi1ELi0ELi3ELi1EEEdEE7__cloneEPNS0_6__baseIS9_EE', symObjAddr: 0xD3B8, symBinAddr: 0x100016B98, symSize: 0x10 }
  - { offsetInCU: 0x1A2EAA, offset: 0x1F4909, size: 0x8, addend: 0x0, symName: '__ZNKSt3__110__function6__funcIZN4MSSMC1EdiE3$_2NS_9allocatorIS3_EEFN5Eigen6MatrixIdLi3ELi1ELi0ELi3ELi1EEEdEE7__cloneEPNS0_6__baseIS9_EE', symObjAddr: 0xD3B8, symBinAddr: 0x100016B98, symSize: 0x10 }
  - { offsetInCU: 0x1A2EC6, offset: 0x1F4925, size: 0x8, addend: 0x0, symName: '__ZNKSt3__110__function6__funcIZN4MSSMC1EdiE3$_2NS_9allocatorIS3_EEFN5Eigen6MatrixIdLi3ELi1ELi0ELi3ELi1EEEdEE7__cloneEPNS0_6__baseIS9_EE', symObjAddr: 0xD3B8, symBinAddr: 0x100016B98, symSize: 0x10 }
  - { offsetInCU: 0x1A2EE2, offset: 0x1F4941, size: 0x8, addend: 0x0, symName: '__ZNSt3__110__function6__funcIZN4MSSMC1EdiE3$_2NS_9allocatorIS3_EEFN5Eigen6MatrixIdLi3ELi1ELi0ELi3ELi1EEEdEE7destroyEv', symObjAddr: 0xD3C8, symBinAddr: 0x100016BA8, symSize: 0x4 }
  - { offsetInCU: 0x1A2F33, offset: 0x1F4992, size: 0x8, addend: 0x0, symName: '__ZNSt3__110__function6__funcIZN4MSSMC1EdiE3$_2NS_9allocatorIS3_EEFN5Eigen6MatrixIdLi3ELi1ELi0ELi3ELi1EEEdEE18destroy_deallocateEv', symObjAddr: 0xD3CC, symBinAddr: 0x100016BAC, symSize: 0x4 }
  - { offsetInCU: 0x1A2F68, offset: 0x1F49C7, size: 0x8, addend: 0x0, symName: '__ZNSt3__110__function6__funcIZN4MSSMC1EdiE3$_2NS_9allocatorIS3_EEFN5Eigen6MatrixIdLi3ELi1ELi0ELi3ELi1EEEdEE18destroy_deallocateEv', symObjAddr: 0xD3CC, symBinAddr: 0x100016BAC, symSize: 0x4 }
  - { offsetInCU: 0x1A2F8A, offset: 0x1F49E9, size: 0x8, addend: 0x0, symName: '__ZNSt3__110__function6__funcIZN4MSSMC1EdiE3$_2NS_9allocatorIS3_EEFN5Eigen6MatrixIdLi3ELi1ELi0ELi3ELi1EEEdEE18destroy_deallocateEv', symObjAddr: 0xD3CC, symBinAddr: 0x100016BAC, symSize: 0x4 }
  - { offsetInCU: 0x1A2FB5, offset: 0x1F4A14, size: 0x8, addend: 0x0, symName: '__ZNSt3__110__function6__funcIZN4MSSMC1EdiE3$_2NS_9allocatorIS3_EEFN5Eigen6MatrixIdLi3ELi1ELi0ELi3ELi1EEEdEE18destroy_deallocateEv', symObjAddr: 0xD3CC, symBinAddr: 0x100016BAC, symSize: 0x4 }
  - { offsetInCU: 0x1A2FDB, offset: 0x1F4A3A, size: 0x8, addend: 0x0, symName: '__ZNSt3__110__function6__funcIZN4MSSMC1EdiE3$_2NS_9allocatorIS3_EEFN5Eigen6MatrixIdLi3ELi1ELi0ELi3ELi1EEEdEE18destroy_deallocateEv', symObjAddr: 0xD3CC, symBinAddr: 0x100016BAC, symSize: 0x4 }
  - { offsetInCU: 0x1A3086, offset: 0x1F4AE5, size: 0x8, addend: 0x0, symName: '__ZNSt3__110__function6__funcIZN4MSSMC1EdiE3$_2NS_9allocatorIS3_EEFN5Eigen6MatrixIdLi3ELi1ELi0ELi3ELi1EEEdEEclEOd', symObjAddr: 0xD3D0, symBinAddr: 0x100016BB0, symSize: 0xC }
  - { offsetInCU: 0x1A30B9, offset: 0x1F4B18, size: 0x8, addend: 0x0, symName: '__ZNSt3__110__function6__funcIZN4MSSMC1EdiE3$_2NS_9allocatorIS3_EEFN5Eigen6MatrixIdLi3ELi1ELi0ELi3ELi1EEEdEEclEOd', symObjAddr: 0xD3D0, symBinAddr: 0x100016BB0, symSize: 0xC }
  - { offsetInCU: 0x1A30CE, offset: 0x1F4B2D, size: 0x8, addend: 0x0, symName: '__ZNSt3__110__function6__funcIZN4MSSMC1EdiE3$_2NS_9allocatorIS3_EEFN5Eigen6MatrixIdLi3ELi1ELi0ELi3ELi1EEEdEEclEOd', symObjAddr: 0xD3D0, symBinAddr: 0x100016BB0, symSize: 0xC }
  - { offsetInCU: 0x1A30E2, offset: 0x1F4B41, size: 0x8, addend: 0x0, symName: '__ZNSt3__110__function6__funcIZN4MSSMC1EdiE3$_2NS_9allocatorIS3_EEFN5Eigen6MatrixIdLi3ELi1ELi0ELi3ELi1EEEdEEclEOd', symObjAddr: 0xD3D0, symBinAddr: 0x100016BB0, symSize: 0xC }
  - { offsetInCU: 0x1A30F7, offset: 0x1F4B56, size: 0x8, addend: 0x0, symName: '__ZNSt3__110__function6__funcIZN4MSSMC1EdiE3$_2NS_9allocatorIS3_EEFN5Eigen6MatrixIdLi3ELi1ELi0ELi3ELi1EEEdEEclEOd', symObjAddr: 0xD3D0, symBinAddr: 0x100016BB0, symSize: 0xC }
  - { offsetInCU: 0x1A3115, offset: 0x1F4B74, size: 0x8, addend: 0x0, symName: '__ZNSt3__110__function6__funcIZN4MSSMC1EdiE3$_2NS_9allocatorIS3_EEFN5Eigen6MatrixIdLi3ELi1ELi0ELi3ELi1EEEdEEclEOd', symObjAddr: 0xD3D0, symBinAddr: 0x100016BB0, symSize: 0xC }
  - { offsetInCU: 0x1A312C, offset: 0x1F4B8B, size: 0x8, addend: 0x0, symName: '__ZNKSt3__110__function6__funcIZN4MSSMC1EdiE3$_2NS_9allocatorIS3_EEFN5Eigen6MatrixIdLi3ELi1ELi0ELi3ELi1EEEdEE6targetERKSt9type_info', symObjAddr: 0xD3DC, symBinAddr: 0x100016BBC, symSize: 0x60 }
  - { offsetInCU: 0x1A31B2, offset: 0x1F4C11, size: 0x8, addend: 0x0, symName: '__ZNKSt3__110__function6__funcIZN4MSSMC1EdiE3$_2NS_9allocatorIS3_EEFN5Eigen6MatrixIdLi3ELi1ELi0ELi3ELi1EEEdEE11target_typeEv', symObjAddr: 0xD43C, symBinAddr: 0x100016C1C, symSize: 0xC }
  - { offsetInCU: 0x1A3628, offset: 0x1F5087, size: 0x8, addend: 0x0, symName: __ZNSt3__117bad_function_callD1Ev, symObjAddr: 0xD7FC, symBinAddr: 0x100016C5C, symSize: 0x4 }
  - { offsetInCU: 0x1A364A, offset: 0x1F50A9, size: 0x8, addend: 0x0, symName: __ZNSt3__117bad_function_callD1Ev, symObjAddr: 0xD7FC, symBinAddr: 0x100016C5C, symSize: 0x4 }
  - { offsetInCU: 0x1A367E, offset: 0x1F50DD, size: 0x8, addend: 0x0, symName: __ZNSt3__117bad_function_callD0Ev, symObjAddr: 0xD800, symBinAddr: 0x100016C60, symSize: 0x14 }
  - { offsetInCU: 0x1A6438, offset: 0x1F7E97, size: 0x8, addend: 0x0, symName: __ZN5Eigen8internal16binary_evaluatorINS_13CwiseBinaryOpINS0_13scalar_sum_opIddEEKNS_7ProductINS_6MatrixIdLi3ELi3ELi0ELi3ELi3EEES7_Li0EEES9_EENS0_10IndexBasedESB_ddE4DataC2ERKSA_, symObjAddr: 0xE430, symBinAddr: 0x100017890, symSize: 0x214 }
  - { offsetInCU: 0x1A6461, offset: 0x1F7EC0, size: 0x8, addend: 0x0, symName: __ZN5Eigen8internal16binary_evaluatorINS_13CwiseBinaryOpINS0_13scalar_sum_opIddEEKNS_7ProductINS_6MatrixIdLi3ELi3ELi0ELi3ELi3EEES7_Li0EEES9_EENS0_10IndexBasedESB_ddE4DataC2ERKSA_, symObjAddr: 0xE430, symBinAddr: 0x100017890, symSize: 0x214 }
  - { offsetInCU: 0x1A6486, offset: 0x1F7EE5, size: 0x8, addend: 0x0, symName: __ZN5Eigen8internal16binary_evaluatorINS_13CwiseBinaryOpINS0_13scalar_sum_opIddEEKNS_7ProductINS_6MatrixIdLi3ELi3ELi0ELi3ELi3EEES7_Li0EEES9_EENS0_10IndexBasedESB_ddE4DataC2ERKSA_, symObjAddr: 0xE430, symBinAddr: 0x100017890, symSize: 0x214 }
  - { offsetInCU: 0x1A64AA, offset: 0x1F7F09, size: 0x8, addend: 0x0, symName: __ZN5Eigen8internal16binary_evaluatorINS_13CwiseBinaryOpINS0_13scalar_sum_opIddEEKNS_7ProductINS_6MatrixIdLi3ELi3ELi0ELi3ELi3EEES7_Li0EEES9_EENS0_10IndexBasedESB_ddE4DataC2ERKSA_, symObjAddr: 0xE430, symBinAddr: 0x100017890, symSize: 0x214 }
  - { offsetInCU: 0x1A64CE, offset: 0x1F7F2D, size: 0x8, addend: 0x0, symName: __ZN5Eigen8internal16binary_evaluatorINS_13CwiseBinaryOpINS0_13scalar_sum_opIddEEKNS_7ProductINS_6MatrixIdLi3ELi3ELi0ELi3ELi3EEES7_Li0EEES9_EENS0_10IndexBasedESB_ddE4DataC2ERKSA_, symObjAddr: 0xE430, symBinAddr: 0x100017890, symSize: 0x214 }
  - { offsetInCU: 0x1A758B, offset: 0x1F8FEA, size: 0x8, addend: 0x0, symName: __ZN5Eigen8internal21dense_assignment_loopINS0_31generic_dense_assignment_kernelINS0_9evaluatorINS_6MatrixIdLi3ELi3ELi0ELi3ELi3EEEEENS3_INS_13CwiseBinaryOpINS0_17scalar_product_opIddEEKNS_14CwiseNullaryOpINS0_18scalar_constant_opIdEEKS5_EEKNS7_INS0_13scalar_sum_opIddEEKNS7_IS9_SD_SF_EEKNS7_IS9_SF_KNS7_ISH_KNS7_ISH_KNS_7ProductIS5_S5_Li0EEESM_EEKNS7_IS9_SF_KNS7_ISH_KNS7_ISH_KNSK_ISL_S5_Li0EEEKNS7_IS9_SF_SD_EEEESD_EEEEEEEEEEEEEENS0_9assign_opIddEELi0EEELi3ELi2EE3runERS19_, symObjAddr: 0xEA1C, symBinAddr: 0x100017E7C, symSize: 0x248 }
  - { offsetInCU: 0x1A75B1, offset: 0x1F9010, size: 0x8, addend: 0x0, symName: __ZN5Eigen8internal21dense_assignment_loopINS0_31generic_dense_assignment_kernelINS0_9evaluatorINS_6MatrixIdLi3ELi3ELi0ELi3ELi3EEEEENS3_INS_13CwiseBinaryOpINS0_17scalar_product_opIddEEKNS_14CwiseNullaryOpINS0_18scalar_constant_opIdEEKS5_EEKNS7_INS0_13scalar_sum_opIddEEKNS7_IS9_SD_SF_EEKNS7_IS9_SF_KNS7_ISH_KNS7_ISH_KNS_7ProductIS5_S5_Li0EEESM_EEKNS7_IS9_SF_KNS7_ISH_KNS7_ISH_KNSK_ISL_S5_Li0EEEKNS7_IS9_SF_SD_EEEESD_EEEEEEEEEEEEEENS0_9assign_opIddEELi0EEELi3ELi2EE3runERS19_, symObjAddr: 0xEA1C, symBinAddr: 0x100017E7C, symSize: 0x248 }
  - { offsetInCU: 0x1A75CD, offset: 0x1F902C, size: 0x8, addend: 0x0, symName: __ZN5Eigen8internal21dense_assignment_loopINS0_31generic_dense_assignment_kernelINS0_9evaluatorINS_6MatrixIdLi3ELi3ELi0ELi3ELi3EEEEENS3_INS_13CwiseBinaryOpINS0_17scalar_product_opIddEEKNS_14CwiseNullaryOpINS0_18scalar_constant_opIdEEKS5_EEKNS7_INS0_13scalar_sum_opIddEEKNS7_IS9_SD_SF_EEKNS7_IS9_SF_KNS7_ISH_KNS7_ISH_KNS_7ProductIS5_S5_Li0EEESM_EEKNS7_IS9_SF_KNS7_ISH_KNS7_ISH_KNSK_ISL_S5_Li0EEEKNS7_IS9_SF_SD_EEEESD_EEEEEEEEEEEEEENS0_9assign_opIddEELi0EEELi3ELi2EE3runERS19_, symObjAddr: 0xEA1C, symBinAddr: 0x100017E7C, symSize: 0x248 }
  - { offsetInCU: 0x1A7603, offset: 0x1F9062, size: 0x8, addend: 0x0, symName: __ZN5Eigen8internal21dense_assignment_loopINS0_31generic_dense_assignment_kernelINS0_9evaluatorINS_6MatrixIdLi3ELi3ELi0ELi3ELi3EEEEENS3_INS_13CwiseBinaryOpINS0_17scalar_product_opIddEEKNS_14CwiseNullaryOpINS0_18scalar_constant_opIdEEKS5_EEKNS7_INS0_13scalar_sum_opIddEEKNS7_IS9_SD_SF_EEKNS7_IS9_SF_KNS7_ISH_KNS7_ISH_KNS_7ProductIS5_S5_Li0EEESM_EEKNS7_IS9_SF_KNS7_ISH_KNS7_ISH_KNSK_ISL_S5_Li0EEEKNS7_IS9_SF_SD_EEEESD_EEEEEEEEEEEEEENS0_9assign_opIddEELi0EEELi3ELi2EE3runERS19_, symObjAddr: 0xEA1C, symBinAddr: 0x100017E7C, symSize: 0x248 }
  - { offsetInCU: 0x1ABD54, offset: 0x1FD7B3, size: 0x8, addend: 0x0, symName: __ZN5Eigen8internal30assignment_from_xpr_op_productINS_6MatrixIdLi3ELi3ELi0ELi3ELi3EEENS_13CwiseBinaryOpINS0_13scalar_sum_opIddEEKNS4_IS6_KNS4_INS0_17scalar_product_opIddEEKS3_KNS_14CwiseNullaryOpINS0_18scalar_constant_opIdEES9_EEEEKNS4_IS8_KNS4_IS8_SE_S9_EESE_EEEEKNS_7ProductISH_S3_Li0EEEEESO_NS0_9assign_opIddEENS0_13add_assign_opIddEEE3runINS4_IS6_KSQ_SP_EESS_EEvRS3_RKT_RKT0_, symObjAddr: 0xF92C, symBinAddr: 0x100018D8C, symSize: 0x37C }
  - { offsetInCU: 0x1ABD91, offset: 0x1FD7F0, size: 0x8, addend: 0x0, symName: __ZN5Eigen8internal30assignment_from_xpr_op_productINS_6MatrixIdLi3ELi3ELi0ELi3ELi3EEENS_13CwiseBinaryOpINS0_13scalar_sum_opIddEEKNS4_IS6_KNS4_INS0_17scalar_product_opIddEEKS3_KNS_14CwiseNullaryOpINS0_18scalar_constant_opIdEES9_EEEEKNS4_IS8_KNS4_IS8_SE_S9_EESE_EEEEKNS_7ProductISH_S3_Li0EEEEESO_NS0_9assign_opIddEENS0_13add_assign_opIddEEE3runINS4_IS6_KSQ_SP_EESS_EEvRS3_RKT_RKT0_, symObjAddr: 0xF92C, symBinAddr: 0x100018D8C, symSize: 0x37C }
  - { offsetInCU: 0x1ABDBD, offset: 0x1FD81C, size: 0x8, addend: 0x0, symName: __ZN5Eigen8internal30assignment_from_xpr_op_productINS_6MatrixIdLi3ELi3ELi0ELi3ELi3EEENS_13CwiseBinaryOpINS0_13scalar_sum_opIddEEKNS4_IS6_KNS4_INS0_17scalar_product_opIddEEKS3_KNS_14CwiseNullaryOpINS0_18scalar_constant_opIdEES9_EEEEKNS4_IS8_KNS4_IS8_SE_S9_EESE_EEEEKNS_7ProductISH_S3_Li0EEEEESO_NS0_9assign_opIddEENS0_13add_assign_opIddEEE3runINS4_IS6_KSQ_SP_EESS_EEvRS3_RKT_RKT0_, symObjAddr: 0xF92C, symBinAddr: 0x100018D8C, symSize: 0x37C }
  - { offsetInCU: 0x1ABDE2, offset: 0x1FD841, size: 0x8, addend: 0x0, symName: __ZN5Eigen8internal30assignment_from_xpr_op_productINS_6MatrixIdLi3ELi3ELi0ELi3ELi3EEENS_13CwiseBinaryOpINS0_13scalar_sum_opIddEEKNS4_IS6_KNS4_INS0_17scalar_product_opIddEEKS3_KNS_14CwiseNullaryOpINS0_18scalar_constant_opIdEES9_EEEEKNS4_IS8_KNS4_IS8_SE_S9_EESE_EEEEKNS_7ProductISH_S3_Li0EEEEESO_NS0_9assign_opIddEENS0_13add_assign_opIddEEE3runINS4_IS6_KSQ_SP_EESS_EEvRS3_RKT_RKT0_, symObjAddr: 0xF92C, symBinAddr: 0x100018D8C, symSize: 0x37C }
  - { offsetInCU: 0x1ABE10, offset: 0x1FD86F, size: 0x8, addend: 0x0, symName: __ZN5Eigen8internal30assignment_from_xpr_op_productINS_6MatrixIdLi3ELi3ELi0ELi3ELi3EEENS_13CwiseBinaryOpINS0_13scalar_sum_opIddEEKNS4_IS6_KNS4_INS0_17scalar_product_opIddEEKS3_KNS_14CwiseNullaryOpINS0_18scalar_constant_opIdEES9_EEEEKNS4_IS8_KNS4_IS8_SE_S9_EESE_EEEEKNS_7ProductISH_S3_Li0EEEEESO_NS0_9assign_opIddEENS0_13add_assign_opIddEEE3runINS4_IS6_KSQ_SP_EESS_EEvRS3_RKT_RKT0_, symObjAddr: 0xF92C, symBinAddr: 0x100018D8C, symSize: 0x37C }
  - { offsetInCU: 0x1ABE37, offset: 0x1FD896, size: 0x8, addend: 0x0, symName: __ZN5Eigen8internal30assignment_from_xpr_op_productINS_6MatrixIdLi3ELi3ELi0ELi3ELi3EEENS_13CwiseBinaryOpINS0_13scalar_sum_opIddEEKNS4_IS6_KNS4_INS0_17scalar_product_opIddEEKS3_KNS_14CwiseNullaryOpINS0_18scalar_constant_opIdEES9_EEEEKNS4_IS8_KNS4_IS8_SE_S9_EESE_EEEEKNS_7ProductISH_S3_Li0EEEEESO_NS0_9assign_opIddEENS0_13add_assign_opIddEEE3runINS4_IS6_KSQ_SP_EESS_EEvRS3_RKT_RKT0_, symObjAddr: 0xF92C, symBinAddr: 0x100018D8C, symSize: 0x37C }
  - { offsetInCU: 0x1ABE7C, offset: 0x1FD8DB, size: 0x8, addend: 0x0, symName: __ZN5Eigen8internal30assignment_from_xpr_op_productINS_6MatrixIdLi3ELi3ELi0ELi3ELi3EEENS_13CwiseBinaryOpINS0_13scalar_sum_opIddEEKNS4_IS6_KNS4_INS0_17scalar_product_opIddEEKS3_KNS_14CwiseNullaryOpINS0_18scalar_constant_opIdEES9_EEEEKNS4_IS8_KNS4_IS8_SE_S9_EESE_EEEEKNS_7ProductISH_S3_Li0EEEEESO_NS0_9assign_opIddEENS0_13add_assign_opIddEEE3runINS4_IS6_KSQ_SP_EESS_EEvRS3_RKT_RKT0_, symObjAddr: 0xF92C, symBinAddr: 0x100018D8C, symSize: 0x37C }
  - { offsetInCU: 0x1ABE9C, offset: 0x1FD8FB, size: 0x8, addend: 0x0, symName: __ZN5Eigen8internal30assignment_from_xpr_op_productINS_6MatrixIdLi3ELi3ELi0ELi3ELi3EEENS_13CwiseBinaryOpINS0_13scalar_sum_opIddEEKNS4_IS6_KNS4_INS0_17scalar_product_opIddEEKS3_KNS_14CwiseNullaryOpINS0_18scalar_constant_opIdEES9_EEEEKNS4_IS8_KNS4_IS8_SE_S9_EESE_EEEEKNS_7ProductISH_S3_Li0EEEEESO_NS0_9assign_opIddEENS0_13add_assign_opIddEEE3runINS4_IS6_KSQ_SP_EESS_EEvRS3_RKT_RKT0_, symObjAddr: 0xF92C, symBinAddr: 0x100018D8C, symSize: 0x37C }
  - { offsetInCU: 0x1ABEBC, offset: 0x1FD91B, size: 0x8, addend: 0x0, symName: __ZN5Eigen8internal30assignment_from_xpr_op_productINS_6MatrixIdLi3ELi3ELi0ELi3ELi3EEENS_13CwiseBinaryOpINS0_13scalar_sum_opIddEEKNS4_IS6_KNS4_INS0_17scalar_product_opIddEEKS3_KNS_14CwiseNullaryOpINS0_18scalar_constant_opIdEES9_EEEEKNS4_IS8_KNS4_IS8_SE_S9_EESE_EEEEKNS_7ProductISH_S3_Li0EEEEESO_NS0_9assign_opIddEENS0_13add_assign_opIddEEE3runINS4_IS6_KSQ_SP_EESS_EEvRS3_RKT_RKT0_, symObjAddr: 0xF92C, symBinAddr: 0x100018D8C, symSize: 0x37C }
  - { offsetInCU: 0x1ABEDC, offset: 0x1FD93B, size: 0x8, addend: 0x0, symName: __ZN5Eigen8internal30assignment_from_xpr_op_productINS_6MatrixIdLi3ELi3ELi0ELi3ELi3EEENS_13CwiseBinaryOpINS0_13scalar_sum_opIddEEKNS4_IS6_KNS4_INS0_17scalar_product_opIddEEKS3_KNS_14CwiseNullaryOpINS0_18scalar_constant_opIdEES9_EEEEKNS4_IS8_KNS4_IS8_SE_S9_EESE_EEEEKNS_7ProductISH_S3_Li0EEEEESO_NS0_9assign_opIddEENS0_13add_assign_opIddEEE3runINS4_IS6_KSQ_SP_EESS_EEvRS3_RKT_RKT0_, symObjAddr: 0xF92C, symBinAddr: 0x100018D8C, symSize: 0x37C }
  - { offsetInCU: 0x1ABEFC, offset: 0x1FD95B, size: 0x8, addend: 0x0, symName: __ZN5Eigen8internal30assignment_from_xpr_op_productINS_6MatrixIdLi3ELi3ELi0ELi3ELi3EEENS_13CwiseBinaryOpINS0_13scalar_sum_opIddEEKNS4_IS6_KNS4_INS0_17scalar_product_opIddEEKS3_KNS_14CwiseNullaryOpINS0_18scalar_constant_opIdEES9_EEEEKNS4_IS8_KNS4_IS8_SE_S9_EESE_EEEEKNS_7ProductISH_S3_Li0EEEEESO_NS0_9assign_opIddEENS0_13add_assign_opIddEEE3runINS4_IS6_KSQ_SP_EESS_EEvRS3_RKT_RKT0_, symObjAddr: 0xF92C, symBinAddr: 0x100018D8C, symSize: 0x37C }
  - { offsetInCU: 0x1ABF1C, offset: 0x1FD97B, size: 0x8, addend: 0x0, symName: __ZN5Eigen8internal30assignment_from_xpr_op_productINS_6MatrixIdLi3ELi3ELi0ELi3ELi3EEENS_13CwiseBinaryOpINS0_13scalar_sum_opIddEEKNS4_IS6_KNS4_INS0_17scalar_product_opIddEEKS3_KNS_14CwiseNullaryOpINS0_18scalar_constant_opIdEES9_EEEEKNS4_IS8_KNS4_IS8_SE_S9_EESE_EEEEKNS_7ProductISH_S3_Li0EEEEESO_NS0_9assign_opIddEENS0_13add_assign_opIddEEE3runINS4_IS6_KSQ_SP_EESS_EEvRS3_RKT_RKT0_, symObjAddr: 0xF92C, symBinAddr: 0x100018D8C, symSize: 0x37C }
  - { offsetInCU: 0x1ABF3A, offset: 0x1FD999, size: 0x8, addend: 0x0, symName: __ZN5Eigen8internal30assignment_from_xpr_op_productINS_6MatrixIdLi3ELi3ELi0ELi3ELi3EEENS_13CwiseBinaryOpINS0_13scalar_sum_opIddEEKNS4_IS6_KNS4_INS0_17scalar_product_opIddEEKS3_KNS_14CwiseNullaryOpINS0_18scalar_constant_opIdEES9_EEEEKNS4_IS8_KNS4_IS8_SE_S9_EESE_EEEEKNS_7ProductISH_S3_Li0EEEEESO_NS0_9assign_opIddEENS0_13add_assign_opIddEEE3runINS4_IS6_KSQ_SP_EESS_EEvRS3_RKT_RKT0_, symObjAddr: 0xF92C, symBinAddr: 0x100018D8C, symSize: 0x37C }
  - { offsetInCU: 0x1ABF57, offset: 0x1FD9B6, size: 0x8, addend: 0x0, symName: __ZN5Eigen8internal30assignment_from_xpr_op_productINS_6MatrixIdLi3ELi3ELi0ELi3ELi3EEENS_13CwiseBinaryOpINS0_13scalar_sum_opIddEEKNS4_IS6_KNS4_INS0_17scalar_product_opIddEEKS3_KNS_14CwiseNullaryOpINS0_18scalar_constant_opIdEES9_EEEEKNS4_IS8_KNS4_IS8_SE_S9_EESE_EEEEKNS_7ProductISH_S3_Li0EEEEESO_NS0_9assign_opIddEENS0_13add_assign_opIddEEE3runINS4_IS6_KSQ_SP_EESS_EEvRS3_RKT_RKT0_, symObjAddr: 0xF92C, symBinAddr: 0x100018D8C, symSize: 0x37C }
  - { offsetInCU: 0x1ABF74, offset: 0x1FD9D3, size: 0x8, addend: 0x0, symName: __ZN5Eigen8internal30assignment_from_xpr_op_productINS_6MatrixIdLi3ELi3ELi0ELi3ELi3EEENS_13CwiseBinaryOpINS0_13scalar_sum_opIddEEKNS4_IS6_KNS4_INS0_17scalar_product_opIddEEKS3_KNS_14CwiseNullaryOpINS0_18scalar_constant_opIdEES9_EEEEKNS4_IS8_KNS4_IS8_SE_S9_EESE_EEEEKNS_7ProductISH_S3_Li0EEEEESO_NS0_9assign_opIddEENS0_13add_assign_opIddEEE3runINS4_IS6_KSQ_SP_EESS_EEvRS3_RKT_RKT0_, symObjAddr: 0xF92C, symBinAddr: 0x100018D8C, symSize: 0x37C }
  - { offsetInCU: 0x1ABF92, offset: 0x1FD9F1, size: 0x8, addend: 0x0, symName: __ZN5Eigen8internal30assignment_from_xpr_op_productINS_6MatrixIdLi3ELi3ELi0ELi3ELi3EEENS_13CwiseBinaryOpINS0_13scalar_sum_opIddEEKNS4_IS6_KNS4_INS0_17scalar_product_opIddEEKS3_KNS_14CwiseNullaryOpINS0_18scalar_constant_opIdEES9_EEEEKNS4_IS8_KNS4_IS8_SE_S9_EESE_EEEEKNS_7ProductISH_S3_Li0EEEEESO_NS0_9assign_opIddEENS0_13add_assign_opIddEEE3runINS4_IS6_KSQ_SP_EESS_EEvRS3_RKT_RKT0_, symObjAddr: 0xF92C, symBinAddr: 0x100018D8C, symSize: 0x37C }
  - { offsetInCU: 0x1ABFB0, offset: 0x1FDA0F, size: 0x8, addend: 0x0, symName: __ZN5Eigen8internal30assignment_from_xpr_op_productINS_6MatrixIdLi3ELi3ELi0ELi3ELi3EEENS_13CwiseBinaryOpINS0_13scalar_sum_opIddEEKNS4_IS6_KNS4_INS0_17scalar_product_opIddEEKS3_KNS_14CwiseNullaryOpINS0_18scalar_constant_opIdEES9_EEEEKNS4_IS8_KNS4_IS8_SE_S9_EESE_EEEEKNS_7ProductISH_S3_Li0EEEEESO_NS0_9assign_opIddEENS0_13add_assign_opIddEEE3runINS4_IS6_KSQ_SP_EESS_EEvRS3_RKT_RKT0_, symObjAddr: 0xF92C, symBinAddr: 0x100018D8C, symSize: 0x37C }
  - { offsetInCU: 0x1ABFCE, offset: 0x1FDA2D, size: 0x8, addend: 0x0, symName: __ZN5Eigen8internal30assignment_from_xpr_op_productINS_6MatrixIdLi3ELi3ELi0ELi3ELi3EEENS_13CwiseBinaryOpINS0_13scalar_sum_opIddEEKNS4_IS6_KNS4_INS0_17scalar_product_opIddEEKS3_KNS_14CwiseNullaryOpINS0_18scalar_constant_opIdEES9_EEEEKNS4_IS8_KNS4_IS8_SE_S9_EESE_EEEEKNS_7ProductISH_S3_Li0EEEEESO_NS0_9assign_opIddEENS0_13add_assign_opIddEEE3runINS4_IS6_KSQ_SP_EESS_EEvRS3_RKT_RKT0_, symObjAddr: 0xF92C, symBinAddr: 0x100018D8C, symSize: 0x37C }
  - { offsetInCU: 0x1AFC83, offset: 0x2016E2, size: 0x8, addend: 0x0, symName: _OUTLINED_FUNCTION_0, symObjAddr: 0x11284, symBinAddr: 0x100019B24, symSize: 0x8 }
  - { offsetInCU: 0x1AFC9B, offset: 0x2016FA, size: 0x8, addend: 0x0, symName: _OUTLINED_FUNCTION_1, symObjAddr: 0x1128C, symBinAddr: 0x100019B2C, symSize: 0x8 }
  - { offsetInCU: 0x1AFCB3, offset: 0x201712, size: 0x8, addend: 0x0, symName: _OUTLINED_FUNCTION_2, symObjAddr: 0x11294, symBinAddr: 0x100019B34, symSize: 0x8 }
  - { offsetInCU: 0x1AFCCB, offset: 0x20172A, size: 0x8, addend: 0x0, symName: _OUTLINED_FUNCTION_3, symObjAddr: 0x1129C, symBinAddr: 0x100019B3C, symSize: 0x8 }
  - { offsetInCU: 0x1AFCE3, offset: 0x201742, size: 0x8, addend: 0x0, symName: _OUTLINED_FUNCTION_4, symObjAddr: 0x112A4, symBinAddr: 0x100019B44, symSize: 0x8 }
  - { offsetInCU: 0xD462, offset: 0x20ED80, size: 0x8, addend: 0x0, symName: __ZNK6QedQcd7qcdBetaEv, symObjAddr: 0x1038, symBinAddr: 0x10001AB84, symSize: 0x118 }
  - { offsetInCU: 0xD50F, offset: 0x20EE2D, size: 0x8, addend: 0x0, symName: __ZNK6QedQcd8massBetaERN5Eigen6MatrixIdLin1ELi1ELi0ELin1ELi1EEE, symObjAddr: 0x1150, symBinAddr: 0x10001AC9C, symSize: 0x420 }
  - { offsetInCU: 0xD86F, offset: 0x20F18D, size: 0x8, addend: 0x0, symName: __ZN6QedQcdD1Ev, symObjAddr: 0x1570, symBinAddr: 0x10001B0BC, symSize: 0x4 }
  - { offsetInCU: 0xFCD3, offset: 0x2115F1, size: 0x8, addend: 0x0, symName: __ZN6QedQcdC2Ev, symObjAddr: 0x0, symBinAddr: 0x100019B4C, symSize: 0x17C }
  - { offsetInCU: 0x10153, offset: 0x211A71, size: 0x8, addend: 0x0, symName: __ZN12SMParametersD2Ev, symObjAddr: 0x1F8, symBinAddr: 0x100019D44, symSize: 0xA8 }
  - { offsetInCU: 0x10A0D, offset: 0x21232B, size: 0x8, addend: 0x0, symName: __ZN6QedQcd14getRunMtFromMzEdd, symObjAddr: 0x17C, symBinAddr: 0x100019CC8, symSize: 0x7C }
  - { offsetInCU: 0x10DE9, offset: 0x212707, size: 0x8, addend: 0x0, symName: __ZN6QedQcdC1Ev, symObjAddr: 0x2A0, symBinAddr: 0x100019DEC, symSize: 0x4 }
  - { offsetInCU: 0x10E17, offset: 0x212735, size: 0x8, addend: 0x0, symName: __ZN6QedQcdC1Ev, symObjAddr: 0x2A0, symBinAddr: 0x100019DEC, symSize: 0x4 }
  - { offsetInCU: 0x10FB5, offset: 0x2128D3, size: 0x8, addend: 0x0, symName: __ZN6QedQcdC2ERKS_, symObjAddr: 0x2A4, symBinAddr: 0x100019DF0, symSize: 0x9C }
  - { offsetInCU: 0x11254, offset: 0x212B72, size: 0x8, addend: 0x0, symName: __ZN6QedQcdC1ERKS_, symObjAddr: 0x340, symBinAddr: 0x100019E8C, symSize: 0xA0 }
  - { offsetInCU: 0x115D9, offset: 0x212EF7, size: 0x8, addend: 0x0, symName: __ZN6QedQcdC1ERKS_.cold.2, symObjAddr: 0x1C30, symBinAddr: 0x100028608, symSize: 0x40 }
  - { offsetInCU: 0x118EC, offset: 0x21320A, size: 0x8, addend: 0x0, symName: __ZN6QedQcdC1ERKS_.cold.1, symObjAddr: 0x1BB0, symBinAddr: 0x100028588, symSize: 0x80 }
  - { offsetInCU: 0x1226E, offset: 0x213B8C, size: 0x8, addend: 0x0, symName: __ZN6QedQcdC2EdRKN5Eigen6MatrixIdLi2ELi1ELi0ELi2ELi1EEERKNS1_IdLin1ELi1ELi0ELin1ELi1EEE, symObjAddr: 0x3E0, symBinAddr: 0x100019F2C, symSize: 0x1D4 }
  - { offsetInCU: 0x12B1A, offset: 0x214438, size: 0x8, addend: 0x0, symName: __ZN6QedQcdC1EdRKN5Eigen6MatrixIdLi2ELi1ELi0ELi2ELi1EEERKNS1_IdLin1ELi1ELi0ELin1ELi1EEE, symObjAddr: 0x5B4, symBinAddr: 0x10001A100, symSize: 0x4 }
  - { offsetInCU: 0x12B53, offset: 0x214471, size: 0x8, addend: 0x0, symName: __ZN6QedQcdC1EdRKN5Eigen6MatrixIdLi2ELi1ELi0ELi2ELi1EEERKNS1_IdLin1ELi1ELi0ELin1ELi1EEE, symObjAddr: 0x5B4, symBinAddr: 0x10001A100, symSize: 0x4 }
  - { offsetInCU: 0x12BA9, offset: 0x2144C7, size: 0x8, addend: 0x0, symName: __ZN6QedQcdaSERKS_, symObjAddr: 0x5B8, symBinAddr: 0x10001A104, symSize: 0x160 }
  - { offsetInCU: 0x13388, offset: 0x214CA6, size: 0x8, addend: 0x0, symName: __ZN6QedQcd9setPoleMtEd, symObjAddr: 0x718, symBinAddr: 0x10001A264, symSize: 0x50 }
  - { offsetInCU: 0x13394, offset: 0x214CB2, size: 0x8, addend: 0x0, symName: __ZN6QedQcdaSERKS_.cold.1, symObjAddr: 0x1C70, symBinAddr: 0x100028648, symSize: 0x28 }
  - { offsetInCU: 0x134EB, offset: 0x214E09, size: 0x8, addend: 0x0, symName: __ZN6QedQcd9setPoleMtEd, symObjAddr: 0x718, symBinAddr: 0x10001A264, symSize: 0x50 }
  - { offsetInCU: 0x136B2, offset: 0x214FD0, size: 0x8, addend: 0x0, symName: __ZN6QedQcd8getRunMtEdd, symObjAddr: 0x768, symBinAddr: 0x10001A2B4, symSize: 0x24 }
  - { offsetInCU: 0x136BE, offset: 0x214FDC, size: 0x8, addend: 0x0, symName: __ZN6QedQcd9setPoleMtEd.cold.1, symObjAddr: 0x1C98, symBinAddr: 0x100028670, symSize: 0x24 }
  - { offsetInCU: 0x136EC, offset: 0x21500A, size: 0x8, addend: 0x0, symName: __ZN6QedQcd8getRunMtEdd, symObjAddr: 0x768, symBinAddr: 0x10001A2B4, symSize: 0x24 }
  - { offsetInCU: 0x1371E, offset: 0x21503C, size: 0x8, addend: 0x0, symName: __ZN6QedQcd7getAsmtEdd, symObjAddr: 0x78C, symBinAddr: 0x10001A2D8, symSize: 0x54 }
  - { offsetInCU: 0x13796, offset: 0x2150B4, size: 0x8, addend: 0x0, symName: __ZNK6QedQcd8flavoursEd, symObjAddr: 0x7E0, symBinAddr: 0x10001A32C, symSize: 0xC4 }
  - { offsetInCU: 0x138D9, offset: 0x2151F7, size: 0x8, addend: 0x0, symName: __ZN6QedQcd4toMZEv, symObjAddr: 0x8A4, symBinAddr: 0x10001A3F0, symSize: 0x54 }
  - { offsetInCU: 0x138E5, offset: 0x215203, size: 0x8, addend: 0x0, symName: __ZNK6QedQcd8flavoursEd.cold.3, symObjAddr: 0x1D04, symBinAddr: 0x1000286DC, symSize: 0x24 }
  - { offsetInCU: 0x13913, offset: 0x215231, size: 0x8, addend: 0x0, symName: __ZNK6QedQcd8flavoursEd.cold.1, symObjAddr: 0x1CBC, symBinAddr: 0x100028694, symSize: 0x24 }
  - { offsetInCU: 0x13941, offset: 0x21525F, size: 0x8, addend: 0x0, symName: __ZNK6QedQcd8flavoursEd.cold.2, symObjAddr: 0x1CE0, symBinAddr: 0x1000286B8, symSize: 0x24 }
  - { offsetInCU: 0x139B1, offset: 0x2152CF, size: 0x8, addend: 0x0, symName: __ZN6QedQcd4toMZEv, symObjAddr: 0x8A4, symBinAddr: 0x10001A3F0, symSize: 0x54 }
  - { offsetInCU: 0x13A87, offset: 0x2153A5, size: 0x8, addend: 0x0, symName: __ZN6QedQcd4toMtEv, symObjAddr: 0x8F8, symBinAddr: 0x10001A444, symSize: 0x64 }
  - { offsetInCU: 0x13B89, offset: 0x2154A7, size: 0x8, addend: 0x0, symName: __ZN6QedQcd3setERKN5Eigen6MatrixIdLin1ELi1ELi0ELin1ELi1EEE, symObjAddr: 0x95C, symBinAddr: 0x10001A4A8, symSize: 0x128 }
  - { offsetInCU: 0x13ECD, offset: 0x2157EB, size: 0x8, addend: 0x0, symName: __ZNK6QedQcd7displayEv, symObjAddr: 0xA84, symBinAddr: 0x10001A5D0, symSize: 0x128 }
  - { offsetInCU: 0x13ED9, offset: 0x2157F7, size: 0x8, addend: 0x0, symName: __ZN6QedQcd3setERKN5Eigen6MatrixIdLin1ELi1ELi0ELin1ELi1EEE.cold.2, symObjAddr: 0x1D4C, symBinAddr: 0x100028724, symSize: 0x24 }
  - { offsetInCU: 0x13F07, offset: 0x215825, size: 0x8, addend: 0x0, symName: __ZN6QedQcd3setERKN5Eigen6MatrixIdLin1ELi1ELi0ELin1ELi1EEE.cold.3, symObjAddr: 0x1D70, symBinAddr: 0x100028748, symSize: 0x24 }
  - { offsetInCU: 0x13F35, offset: 0x215853, size: 0x8, addend: 0x0, symName: __ZN6QedQcd3setERKN5Eigen6MatrixIdLin1ELi1ELi0ELin1ELi1EEE.cold.4, symObjAddr: 0x1D94, symBinAddr: 0x10002876C, symSize: 0x24 }
  - { offsetInCU: 0x13F63, offset: 0x215881, size: 0x8, addend: 0x0, symName: __ZN6QedQcd3setERKN5Eigen6MatrixIdLin1ELi1ELi0ELin1ELi1EEE.cold.1, symObjAddr: 0x1D28, symBinAddr: 0x100028700, symSize: 0x24 }
  - { offsetInCU: 0x13F91, offset: 0x2158AF, size: 0x8, addend: 0x0, symName: __ZNK6QedQcd7displayEv, symObjAddr: 0xA84, symBinAddr: 0x10001A5D0, symSize: 0x128 }
  - { offsetInCU: 0x144CA, offset: 0x215DE8, size: 0x8, addend: 0x0, symName: __ZNK6QedQcd4betaEv, symObjAddr: 0xBAC, symBinAddr: 0x10001A6F8, symSize: 0x28C }
  - { offsetInCU: 0x1540D, offset: 0x216D2B, size: 0x8, addend: 0x0, symName: __ZNK6QedQcd7qedBetaEv, symObjAddr: 0xE38, symBinAddr: 0x10001A984, symSize: 0x200 }
  - { offsetInCU: 0x15CDD, offset: 0x2175FB, size: 0x8, addend: 0x0, symName: __ZNK6QedQcd7qedBetaEv.cold.4, symObjAddr: 0x1E24, symBinAddr: 0x1000287FC, symSize: 0x24 }
  - { offsetInCU: 0x15D0B, offset: 0x217629, size: 0x8, addend: 0x0, symName: __ZNK6QedQcd7qedBetaEv.cold.1, symObjAddr: 0x1DB8, symBinAddr: 0x100028790, symSize: 0x24 }
  - { offsetInCU: 0x15D39, offset: 0x217657, size: 0x8, addend: 0x0, symName: __ZNK6QedQcd7qedBetaEv.cold.3, symObjAddr: 0x1E00, symBinAddr: 0x1000287D8, symSize: 0x24 }
  - { offsetInCU: 0x15D67, offset: 0x217685, size: 0x8, addend: 0x0, symName: __ZNK6QedQcd7qedBetaEv.cold.2, symObjAddr: 0x1DDC, symBinAddr: 0x1000287B4, symSize: 0x24 }
  - { offsetInCU: 0x15F12, offset: 0x217830, size: 0x8, addend: 0x0, symName: __ZNK6QedQcd8massBetaERN5Eigen6MatrixIdLin1ELi1ELi0ELin1ELi1EEE.cold.7, symObjAddr: 0x1F20, symBinAddr: 0x1000288F8, symSize: 0x24 }
  - { offsetInCU: 0x15F40, offset: 0x21785E, size: 0x8, addend: 0x0, symName: __ZNK6QedQcd8massBetaERN5Eigen6MatrixIdLin1ELi1ELi0ELin1ELi1EEE.cold.9, symObjAddr: 0x1F68, symBinAddr: 0x100028940, symSize: 0x24 }
  - { offsetInCU: 0x15F6E, offset: 0x21788C, size: 0x8, addend: 0x0, symName: __ZNK6QedQcd8massBetaERN5Eigen6MatrixIdLin1ELi1ELi0ELin1ELi1EEE.cold.1, symObjAddr: 0x1E48, symBinAddr: 0x100028820, symSize: 0x24 }
  - { offsetInCU: 0x15F9C, offset: 0x2178BA, size: 0x8, addend: 0x0, symName: __ZNK6QedQcd8massBetaERN5Eigen6MatrixIdLin1ELi1ELi0ELin1ELi1EEE.cold.2, symObjAddr: 0x1E6C, symBinAddr: 0x100028844, symSize: 0x24 }
  - { offsetInCU: 0x15FCA, offset: 0x2178E8, size: 0x8, addend: 0x0, symName: __ZNK6QedQcd8massBetaERN5Eigen6MatrixIdLin1ELi1ELi0ELin1ELi1EEE.cold.3, symObjAddr: 0x1E90, symBinAddr: 0x100028868, symSize: 0x24 }
  - { offsetInCU: 0x15FF8, offset: 0x217916, size: 0x8, addend: 0x0, symName: __ZNK6QedQcd8massBetaERN5Eigen6MatrixIdLin1ELi1ELi0ELin1ELi1EEE.cold.4, symObjAddr: 0x1EB4, symBinAddr: 0x10002888C, symSize: 0x24 }
  - { offsetInCU: 0x16026, offset: 0x217944, size: 0x8, addend: 0x0, symName: __ZNK6QedQcd8massBetaERN5Eigen6MatrixIdLin1ELi1ELi0ELin1ELi1EEE.cold.5, symObjAddr: 0x1ED8, symBinAddr: 0x1000288B0, symSize: 0x24 }
  - { offsetInCU: 0x16054, offset: 0x217972, size: 0x8, addend: 0x0, symName: __ZNK6QedQcd8massBetaERN5Eigen6MatrixIdLin1ELi1ELi0ELin1ELi1EEE.cold.6, symObjAddr: 0x1EFC, symBinAddr: 0x1000288D4, symSize: 0x24 }
  - { offsetInCU: 0x16082, offset: 0x2179A0, size: 0x8, addend: 0x0, symName: __ZNK6QedQcd8massBetaERN5Eigen6MatrixIdLin1ELi1ELi0ELin1ELi1EEE.cold.8, symObjAddr: 0x1F44, symBinAddr: 0x10002891C, symSize: 0x24 }
  - { offsetInCU: 0x160B0, offset: 0x2179CE, size: 0x8, addend: 0x0, symName: __ZN6QedQcdD1Ev, symObjAddr: 0x1570, symBinAddr: 0x10001B0BC, symSize: 0x4 }
  - { offsetInCU: 0x160D3, offset: 0x2179F1, size: 0x8, addend: 0x0, symName: __ZN6QedQcdD1Ev, symObjAddr: 0x1570, symBinAddr: 0x10001B0BC, symSize: 0x4 }
  - { offsetInCU: 0x161F8, offset: 0x217B16, size: 0x8, addend: 0x0, symName: __ZN6QedQcdD0Ev, symObjAddr: 0x16E4, symBinAddr: 0x10001B0C0, symSize: 0x14 }
  - { offsetInCU: 0x16254, offset: 0x217B72, size: 0x8, addend: 0x0, symName: __ZN5Eigen8internal28conditional_aligned_new_autoIdLb1EEEPT_m.cold.1, symObjAddr: 0x1F8C, symBinAddr: 0x100028964, symSize: 0x28 }
  - { offsetInCU: 0x166EE, offset: 0x21800C, size: 0x8, addend: 0x0, symName: _OUTLINED_FUNCTION_0, symObjAddr: 0x1FB4, symBinAddr: 0x10001B0D4, symSize: 0x8 }
  - { offsetInCU: 0x16706, offset: 0x218024, size: 0x8, addend: 0x0, symName: _OUTLINED_FUNCTION_1, symObjAddr: 0x1FBC, symBinAddr: 0x10001B0DC, symSize: 0x8 }
  - { offsetInCU: 0x26, offset: 0x218061, size: 0x8, addend: 0x0, symName: __ZN3RGE5runtoEdPKN5Eigen6MatrixIdLin1ELi1ELi0ELin1ELi1EEEb, symObjAddr: 0x0, symBinAddr: 0x10001B0E4, symSize: 0x448 }
  - { offsetInCU: 0x11B68, offset: 0x229BA3, size: 0x8, addend: 0x0, symName: __ZN3RGE5runtoEdPKN5Eigen6MatrixIdLin1ELi1ELi0ELin1ELi1EEEb, symObjAddr: 0x0, symBinAddr: 0x10001B0E4, symSize: 0x448 }
  - { offsetInCU: 0x15BC8, offset: 0x22DC03, size: 0x8, addend: 0x0, symName: __ZN3RGE10RungeKuttaEddRN5Eigen6MatrixIdLin1ELi1ELi0ELin1ELi1EEEPS_, symObjAddr: 0x448, symBinAddr: 0x10001B52C, symSize: 0xB8C }
  - { offsetInCU: 0x1AD47, offset: 0x232D82, size: 0x8, addend: 0x0, symName: __ZN3RGE6evolveEddRKN5Eigen6MatrixIdLin1ELi1ELi0ELin1ELi1EEEPS_, symObjAddr: 0xFD4, symBinAddr: 0x10001C0B8, symSize: 0xD0 }
  - { offsetInCU: 0x1B16B, offset: 0x2331A6, size: 0x8, addend: 0x0, symName: __ZN5Eigen15PlainObjectBaseINS_6MatrixIdLin1ELi1ELi0ELin1ELi1EEEEC2INS_13CwiseBinaryOpINS_8internal17scalar_product_opIddEEKS2_KNS_14CwiseNullaryOpINS6_18scalar_constant_opIdEES9_EEEEEERKNS_9DenseBaseIT_EE, symObjAddr: 0x110C, symBinAddr: 0x10001C188, symSize: 0x1B0 }
  - { offsetInCU: 0x1B921, offset: 0x23395C, size: 0x8, addend: 0x0, symName: __ZN5Eigen8internal28conditional_aligned_new_autoIdLb1EEEPT_m.cold.1, symObjAddr: 0x12BC, symBinAddr: 0x10002898C, symSize: 0x28 }
  - { offsetInCU: 0x10804, offset: 0x2442A4, size: 0x8, addend: 0x0, symName: __ZN5Eigen8internal26call_dense_assignment_loopINS_6MatrixIdLi3ELi3ELi0ELi3ELi3EEENS_13CwiseBinaryOpINS0_13scalar_sum_opIddEEKNS4_INS0_20scalar_difference_opIddEEKNS4_IS6_KNS4_IS8_KNS_7ProductINS4_INS0_17scalar_product_opIddEEKNS_14CwiseNullaryOpINS0_18scalar_constant_opIdEEKS3_EESF_EES3_Li0EEEKSI_EEKNS4_ISB_SF_SH_EEEESL_EESP_EENS0_9assign_opIddEEEEvRT_RKT0_RKT1_, symObjAddr: 0x75A0, symBinAddr: 0x100023234, symSize: 0x2BC }
  - { offsetInCU: 0x76432, offset: 0x2A9ED2, size: 0x8, addend: 0x0, symName: __ZNK13StandardModel4betaEv, symObjAddr: 0x20A4, symBinAddr: 0x10001E134, symSize: 0x3668 }
  - { offsetInCU: 0x7648E, offset: 0x2A9F2E, size: 0x8, addend: 0x0, symName: __MergedGlobals, symObjAddr: 0x94C2C0, symBinAddr: 0x1000311D0, symSize: 0x0 }
  - { offsetInCU: 0x764A7, offset: 0x2A9F47, size: 0x8, addend: 0x0, symName: __MergedGlobals, symObjAddr: 0x94C2C0, symBinAddr: 0x1000311D0, symSize: 0x0 }
  - { offsetInCU: 0x764C1, offset: 0x2A9F61, size: 0x8, addend: 0x0, symName: __MergedGlobals, symObjAddr: 0x94C2C0, symBinAddr: 0x1000311D0, symSize: 0x0 }
  - { offsetInCU: 0x764DB, offset: 0x2A9F7B, size: 0x8, addend: 0x0, symName: __MergedGlobals, symObjAddr: 0x94C2C0, symBinAddr: 0x1000311D0, symSize: 0x0 }
  - { offsetInCU: 0x764F5, offset: 0x2A9F95, size: 0x8, addend: 0x0, symName: __MergedGlobals, symObjAddr: 0x94C2C0, symBinAddr: 0x1000311D0, symSize: 0x0 }
  - { offsetInCU: 0x7650F, offset: 0x2A9FAF, size: 0x8, addend: 0x0, symName: __MergedGlobals, symObjAddr: 0x94C2C0, symBinAddr: 0x1000311D0, symSize: 0x0 }
  - { offsetInCU: 0x76529, offset: 0x2A9FC9, size: 0x8, addend: 0x0, symName: __MergedGlobals, symObjAddr: 0x94C2C0, symBinAddr: 0x1000311D0, symSize: 0x0 }
  - { offsetInCU: 0x76543, offset: 0x2A9FE3, size: 0x8, addend: 0x0, symName: __MergedGlobals, symObjAddr: 0x94C2C0, symBinAddr: 0x1000311D0, symSize: 0x0 }
  - { offsetInCU: 0x7655D, offset: 0x2A9FFD, size: 0x8, addend: 0x0, symName: __MergedGlobals, symObjAddr: 0x94C2C0, symBinAddr: 0x1000311D0, symSize: 0x0 }
  - { offsetInCU: 0x8F421, offset: 0x2C2EC1, size: 0x8, addend: 0x0, symName: __ZN5Eigen8internal21dense_assignment_loopINS0_31generic_dense_assignment_kernelINS0_9evaluatorINS_6MatrixIdLi3ELi3ELi0ELi3ELi3EEEEENS3_INS_13CwiseBinaryOpINS0_13scalar_sum_opIddEEKNS7_INS0_20scalar_difference_opIddEEKNS7_ISB_KNS7_IS9_KNS7_IS9_KNS7_IS9_KNS7_ISB_KNS7_ISB_KNS_7ProductINS7_INS0_17scalar_product_opIddEEKNS_14CwiseNullaryOpINS0_18scalar_constant_opIdEEKS5_EESI_EES5_Li0EEEKNSC_IS5_S5_Li0EEEEESN_EESN_EEKNS7_ISE_SK_KNS7_ISB_KSL_SW_EEEEEEKNS7_ISE_SI_SK_EEEES14_EESW_EES14_EEEENS0_9assign_opIddEELi0EEELi3ELi0EE3runERS1F_, symObjAddr: 0x6AEC, symBinAddr: 0x100022780, symSize: 0x56C }
  - { offsetInCU: 0x956A9, offset: 0x2C9149, size: 0x8, addend: 0x0, symName: __ZN13StandardModelC2Ev, symObjAddr: 0x0, symBinAddr: 0x10001C338, symSize: 0x80 }
  - { offsetInCU: 0x9583D, offset: 0x2C92DD, size: 0x8, addend: 0x0, symName: __ZN13StandardModelC1Ev, symObjAddr: 0x80, symBinAddr: 0x10001C3B8, symSize: 0x80 }
  - { offsetInCU: 0x95B4B, offset: 0x2C95EB, size: 0x8, addend: 0x0, symName: __ZN13StandardModelC2ERKS_, symObjAddr: 0x100, symBinAddr: 0x10001C438, symSize: 0xE8 }
  - { offsetInCU: 0x95EEC, offset: 0x2C998C, size: 0x8, addend: 0x0, symName: __ZNK13StandardModel13displayYukawaE8yukawaID, symObjAddr: 0x1E8, symBinAddr: 0x10001C520, symSize: 0x80 }
  - { offsetInCU: 0x961A9, offset: 0x2C9C49, size: 0x8, addend: 0x0, symName: __ZN13StandardModelC1ERKS_, symObjAddr: 0x268, symBinAddr: 0x10001C5A0, symSize: 0xE8 }
  - { offsetInCU: 0x9650E, offset: 0x2C9FAE, size: 0x8, addend: 0x0, symName: __ZN13StandardModelC2EdRKN5Eigen6MatrixIdLi3ELi3ELi0ELi3ELi3EEES4_S4_RKNS1_IdLi3ELi1ELi0ELi3ELi1EEEddd, symObjAddr: 0x350, symBinAddr: 0x10001C688, symSize: 0x11C }
  - { offsetInCU: 0x967EA, offset: 0x2CA28A, size: 0x8, addend: 0x0, symName: __ZN13StandardModelC1EdRKN5Eigen6MatrixIdLi3ELi3ELi0ELi3ELi3EEES4_S4_RKNS1_IdLi3ELi1ELi0ELi3ELi1EEEddd, symObjAddr: 0x46C, symBinAddr: 0x10001C7A4, symSize: 0x11C }
  - { offsetInCU: 0x96B79, offset: 0x2CA619, size: 0x8, addend: 0x0, symName: __ZN13StandardModelaSERKS_, symObjAddr: 0x588, symBinAddr: 0x10001C8C0, symSize: 0xAC }
  - { offsetInCU: 0x96E15, offset: 0x2CA8B5, size: 0x8, addend: 0x0, symName: __ZNK13StandardModel20displayYukawaElementE8yukawaIDii, symObjAddr: 0x634, symBinAddr: 0x10001C96C, symSize: 0xAC }
  - { offsetInCU: 0x96EEB, offset: 0x2CA98B, size: 0x8, addend: 0x0, symName: __ZNK13StandardModel11displayMSmzEv, symObjAddr: 0x6E0, symBinAddr: 0x10001CA18, symSize: 0x38 }
  - { offsetInCU: 0x96EF7, offset: 0x2CA997, size: 0x8, addend: 0x0, symName: __ZNK13StandardModel20displayYukawaElementE8yukawaIDii.cold.1, symObjAddr: 0x8178, symBinAddr: 0x1000289B4, symSize: 0x24 }
  - { offsetInCU: 0x96F25, offset: 0x2CA9C5, size: 0x8, addend: 0x0, symName: __ZNK13StandardModel20displayYukawaElementE8yukawaIDii.cold.3, symObjAddr: 0x81C0, symBinAddr: 0x1000289FC, symSize: 0x24 }
  - { offsetInCU: 0x96F53, offset: 0x2CA9F3, size: 0x8, addend: 0x0, symName: __ZNK13StandardModel20displayYukawaElementE8yukawaIDii.cold.2, symObjAddr: 0x819C, symBinAddr: 0x1000289D8, symSize: 0x24 }
  - { offsetInCU: 0x96FA2, offset: 0x2CAA42, size: 0x8, addend: 0x0, symName: __ZNK13StandardModel11displayMSmzEv, symObjAddr: 0x6E0, symBinAddr: 0x10001CA18, symSize: 0x38 }
  - { offsetInCU: 0x96FC4, offset: 0x2CAA64, size: 0x8, addend: 0x0, symName: __ZNK13StandardModel11displayMSmzEv, symObjAddr: 0x6E0, symBinAddr: 0x10001CA18, symSize: 0x38 }
  - { offsetInCU: 0x97055, offset: 0x2CAAF5, size: 0x8, addend: 0x0, symName: __ZNK13StandardModel11displayMSmwEv, symObjAddr: 0x718, symBinAddr: 0x10001CA50, symSize: 0x64 }
  - { offsetInCU: 0x97131, offset: 0x2CABD1, size: 0x8, addend: 0x0, symName: __ZNK13StandardModel13calcHiggsMassEv, symObjAddr: 0x77C, symBinAddr: 0x10001CAB4, symSize: 0x84 }
  - { offsetInCU: 0x9716A, offset: 0x2CAC0A, size: 0x8, addend: 0x0, symName: __ZNK13StandardModel13calcHiggsMassEv, symObjAddr: 0x77C, symBinAddr: 0x10001CAB4, symSize: 0x84 }
  - { offsetInCU: 0x971D5, offset: 0x2CAC75, size: 0x8, addend: 0x0, symName: __ZNK13StandardModel7IsCloseERS_b, symObjAddr: 0x800, symBinAddr: 0x10001CB38, symSize: 0x1F0 }
  - { offsetInCU: 0x97644, offset: 0x2CB0E4, size: 0x8, addend: 0x0, symName: __ZN13StandardModel9setYukawaE8yukawaIDN5Eigen6MatrixIdLi3ELi3ELi0ELi3ELi3EEE, symObjAddr: 0x9F0, symBinAddr: 0x10001CD28, symSize: 0x98 }
  - { offsetInCU: 0x989C9, offset: 0x2CC469, size: 0x8, addend: 0x0, symName: __ZN13StandardModel16setYukawaElementE8yukawaIDiid, symObjAddr: 0xA88, symBinAddr: 0x10001CDC0, symSize: 0xA8 }
  - { offsetInCU: 0x98AA8, offset: 0x2CC548, size: 0x8, addend: 0x0, symName: __ZN13StandardModel11matchQedQcdERK6QedQcdb, symObjAddr: 0xB30, symBinAddr: 0x10001CE68, symSize: 0x10 }
  - { offsetInCU: 0x98AB4, offset: 0x2CC554, size: 0x8, addend: 0x0, symName: __ZN13StandardModel16setYukawaElementE8yukawaIDiid.cold.1, symObjAddr: 0x81E4, symBinAddr: 0x100028A20, symSize: 0x24 }
  - { offsetInCU: 0x98AE2, offset: 0x2CC582, size: 0x8, addend: 0x0, symName: __ZN13StandardModel16setYukawaElementE8yukawaIDiid.cold.3, symObjAddr: 0x822C, symBinAddr: 0x100028A68, symSize: 0x24 }
  - { offsetInCU: 0x98B10, offset: 0x2CC5B0, size: 0x8, addend: 0x0, symName: __ZN13StandardModel16setYukawaElementE8yukawaIDiid.cold.2, symObjAddr: 0x8208, symBinAddr: 0x100028A44, symSize: 0x24 }
  - { offsetInCU: 0x98B6A, offset: 0x2CC60A, size: 0x8, addend: 0x0, symName: __ZN13StandardModel11matchQedQcdERK6QedQcdb, symObjAddr: 0xB30, symBinAddr: 0x10001CE68, symSize: 0x10 }
  - { offsetInCU: 0x98BF4, offset: 0x2CC694, size: 0x8, addend: 0x0, symName: __ZN13StandardModel11matchQedQcdERK6QedQcdb, symObjAddr: 0xB30, symBinAddr: 0x10001CE68, symSize: 0x10 }
  - { offsetInCU: 0x98C70, offset: 0x2CC710, size: 0x8, addend: 0x0, symName: __ZN13StandardModel11matchQedQcdERK6QedQcdddddb, symObjAddr: 0xB40, symBinAddr: 0x10001CE78, symSize: 0xA44 }
  - { offsetInCU: 0x9F1AE, offset: 0x2D2C4E, size: 0x8, addend: 0x0, symName: __ZN13StandardModel11thresholdMbERK6QedQcdRKS_, symObjAddr: 0x17DC, symBinAddr: 0x10001D914, symSize: 0x244 }
  - { offsetInCU: 0x9F604, offset: 0x2D30A4, size: 0x8, addend: 0x0, symName: __ZN13StandardModel13thresholdMtauERK6QedQcdRKS_, symObjAddr: 0x1A20, symBinAddr: 0x10001DB58, symSize: 0x200 }
  - { offsetInCU: 0x9F610, offset: 0x2D30B0, size: 0x8, addend: 0x0, symName: __ZN13StandardModel13thresholdMtauERK6QedQcdRKS_, symObjAddr: 0x1A20, symBinAddr: 0x10001DB58, symSize: 0x200 }
  - { offsetInCU: 0x9FA2A, offset: 0x2D34CA, size: 0x8, addend: 0x0, symName: __ZN13StandardModel11matchQedQcdERK6QedQcdddddb.cold.3, symObjAddr: 0x8298, symBinAddr: 0x100028AD4, symSize: 0x24 }
  - { offsetInCU: 0x9FA6D, offset: 0x2D350D, size: 0x8, addend: 0x0, symName: __ZN13StandardModel11matchQedQcdERK6QedQcdddddb.cold.1, symObjAddr: 0x8250, symBinAddr: 0x100028A8C, symSize: 0x24 }
  - { offsetInCU: 0x9FAB0, offset: 0x2D3550, size: 0x8, addend: 0x0, symName: __ZN13StandardModel11matchQedQcdERK6QedQcdddddb.cold.2, symObjAddr: 0x8274, symBinAddr: 0x100028AB0, symSize: 0x24 }
  - { offsetInCU: 0xA01B5, offset: 0x2D3C55, size: 0x8, addend: 0x0, symName: __ZN5Eigen16CommaInitializerINS_6MatrixIdLi3ELi3ELi0ELi3ELi3EEEED1Ev, symObjAddr: 0x1784, symBinAddr: 0x10001D8BC, symSize: 0x58 }
  - { offsetInCU: 0xA03C8, offset: 0x2D3E68, size: 0x8, addend: 0x0, symName: __ZN13StandardModel11thresholdMbERK6QedQcdRKS_.cold.1, symObjAddr: 0x82BC, symBinAddr: 0x100028AF8, symSize: 0x24 }
  - { offsetInCU: 0xA040B, offset: 0x2D3EAB, size: 0x8, addend: 0x0, symName: __ZN13StandardModel13thresholdMtauERK6QedQcdRKS_.cold.1, symObjAddr: 0x82E0, symBinAddr: 0x100028B1C, symSize: 0x24 }
  - { offsetInCU: 0xA062B, offset: 0x2D40CB, size: 0x8, addend: 0x0, symName: __ZNK13StandardModel7displayEv, symObjAddr: 0x1CC8, symBinAddr: 0x10001DD58, symSize: 0x1D8 }
  - { offsetInCU: 0xA0B10, offset: 0x2D45B0, size: 0x8, addend: 0x0, symName: __ZN13StandardModel3setERKN5Eigen6MatrixIdLin1ELi1ELi0ELin1ELi1EEE, symObjAddr: 0x1EA0, symBinAddr: 0x10001DF30, symSize: 0x204 }
  - { offsetInCU: 0xA0DFC, offset: 0x2D489C, size: 0x8, addend: 0x0, symName: __ZNK13StandardModel4betaEv, symObjAddr: 0x20A4, symBinAddr: 0x10001E134, symSize: 0x3668 }
  - { offsetInCU: 0xA0E08, offset: 0x2D48A8, size: 0x8, addend: 0x0, symName: __ZN13StandardModel3setERKN5Eigen6MatrixIdLin1ELi1ELi0ELin1ELi1EEE.cold.1, symObjAddr: 0x8304, symBinAddr: 0x100028B40, symSize: 0x24 }
  - { offsetInCU: 0xA0E37, offset: 0x2D48D7, size: 0x8, addend: 0x0, symName: __ZN13StandardModel3setERKN5Eigen6MatrixIdLin1ELi1ELi0ELin1ELi1EEE.cold.7, symObjAddr: 0x83DC, symBinAddr: 0x100028C18, symSize: 0x24 }
  - { offsetInCU: 0xA0E66, offset: 0x2D4906, size: 0x8, addend: 0x0, symName: __ZN13StandardModel3setERKN5Eigen6MatrixIdLin1ELi1ELi0ELin1ELi1EEE.cold.6, symObjAddr: 0x83B8, symBinAddr: 0x100028BF4, symSize: 0x24 }
  - { offsetInCU: 0xA0E95, offset: 0x2D4935, size: 0x8, addend: 0x0, symName: __ZN13StandardModel3setERKN5Eigen6MatrixIdLin1ELi1ELi0ELin1ELi1EEE.cold.2, symObjAddr: 0x8328, symBinAddr: 0x100028B64, symSize: 0x24 }
  - { offsetInCU: 0xA0EC4, offset: 0x2D4964, size: 0x8, addend: 0x0, symName: __ZN13StandardModel3setERKN5Eigen6MatrixIdLin1ELi1ELi0ELin1ELi1EEE.cold.5, symObjAddr: 0x8394, symBinAddr: 0x100028BD0, symSize: 0x24 }
  - { offsetInCU: 0xA0EF3, offset: 0x2D4993, size: 0x8, addend: 0x0, symName: __ZN13StandardModel3setERKN5Eigen6MatrixIdLin1ELi1ELi0ELin1ELi1EEE.cold.3, symObjAddr: 0x834C, symBinAddr: 0x100028B88, symSize: 0x24 }
  - { offsetInCU: 0xA0F22, offset: 0x2D49C2, size: 0x8, addend: 0x0, symName: __ZN13StandardModel3setERKN5Eigen6MatrixIdLin1ELi1ELi0ELin1ELi1EEE.cold.4, symObjAddr: 0x8370, symBinAddr: 0x100028BAC, symSize: 0x24 }
  - { offsetInCU: 0xA61B7, offset: 0x2D9C57, size: 0x8, addend: 0x0, symName: __ZNK5Eigen9DenseBaseINS_8DiagonalIKNS_13CwiseBinaryOpINS_8internal13scalar_sum_opIddEEKNS2_IS5_KNS_7ProductINS2_INS3_17scalar_product_opIddEEKNS_14CwiseNullaryOpINS3_18scalar_constant_opIdEEKNS_6MatrixIdLi3ELi3ELi0ELi3ELi3EEEEESE_EESD_Li0EEESJ_EEKNS6_ISD_SD_Li0EEEEELi0EEEE5reduxIS5_EEdRKT_, symObjAddr: 0x606C, symBinAddr: 0x100021D00, symSize: 0x404 }
  - { offsetInCU: 0xA82A8, offset: 0x2DBD48, size: 0x8, addend: 0x0, symName: __ZNK5Eigen9DenseBaseINS_8DiagonalIKNS_13CwiseBinaryOpINS_8internal20scalar_difference_opIddEEKNS2_INS3_13scalar_sum_opIddEEKNS2_IS7_KNS_7ProductINS2_INS3_17scalar_product_opIddEEKNS_14CwiseNullaryOpINS3_18scalar_constant_opIdEEKNS_6MatrixIdLi3ELi3ELi0ELi3ELi3EEEEESG_EESF_Li0EEESL_EEKNS8_ISF_SF_Li0EEEEEKNS2_ISA_SI_KNS2_IS7_SP_SP_EEEEEELi0EEEE5reduxIS7_EEdRKT_, symObjAddr: 0x6470, symBinAddr: 0x100022104, symSize: 0x67C }
  - { offsetInCU: 0xAB6B5, offset: 0x2DF155, size: 0x8, addend: 0x0, symName: __ZN5Eigen8internal16binary_evaluatorINS_13CwiseBinaryOpINS0_13scalar_sum_opIddEEKNS2_INS0_20scalar_difference_opIddEEKNS2_IS6_KNS_7ProductINS2_INS0_17scalar_product_opIddEEKNS_14CwiseNullaryOpINS0_18scalar_constant_opIdEEKNS_6MatrixIdLi3ELi3ELi0ELi3ELi3EEEEESF_EESE_Li0EEEKNS7_ISE_SE_Li0EEEEESK_EESK_EENS0_10IndexBasedESS_ddE4DataC2ERKSR_, symObjAddr: 0x7058, symBinAddr: 0x100022CEC, symSize: 0x2E4 }
  - { offsetInCU: 0xACC0B, offset: 0x2E06AB, size: 0x8, addend: 0x0, symName: __ZN5Eigen8internal16binary_evaluatorINS_13CwiseBinaryOpINS0_13scalar_sum_opIddEEKNS_7ProductINS5_INS2_INS0_17scalar_product_opIddEEKNS_14CwiseNullaryOpINS0_18scalar_constant_opIdEEKNS_6MatrixIdLi3ELi3ELi0ELi3ELi3EEEEESD_EESC_Li0EEESC_Li0EEESJ_EENS0_10IndexBasedESL_ddE4DataC2ERKSK_, symObjAddr: 0x785C, symBinAddr: 0x1000234F0, symSize: 0x2DC }
  - { offsetInCU: 0xACC45, offset: 0x2E06E5, size: 0x8, addend: 0x0, symName: __ZN5Eigen8internal16binary_evaluatorINS_13CwiseBinaryOpINS0_13scalar_sum_opIddEEKNS_7ProductINS5_INS2_INS0_17scalar_product_opIddEEKNS_14CwiseNullaryOpINS0_18scalar_constant_opIdEEKNS_6MatrixIdLi3ELi3ELi0ELi3ELi3EEEEESD_EESC_Li0EEESC_Li0EEESJ_EENS0_10IndexBasedESL_ddE4DataC2ERKSK_, symObjAddr: 0x785C, symBinAddr: 0x1000234F0, symSize: 0x2DC }
  - { offsetInCU: 0xACC6C, offset: 0x2E070C, size: 0x8, addend: 0x0, symName: __ZN5Eigen8internal16binary_evaluatorINS_13CwiseBinaryOpINS0_13scalar_sum_opIddEEKNS_7ProductINS5_INS2_INS0_17scalar_product_opIddEEKNS_14CwiseNullaryOpINS0_18scalar_constant_opIdEEKNS_6MatrixIdLi3ELi3ELi0ELi3ELi3EEEEESD_EESC_Li0EEESC_Li0EEESJ_EENS0_10IndexBasedESL_ddE4DataC2ERKSK_, symObjAddr: 0x785C, symBinAddr: 0x1000234F0, symSize: 0x2DC }
  - { offsetInCU: 0xACC92, offset: 0x2E0732, size: 0x8, addend: 0x0, symName: __ZN5Eigen8internal16binary_evaluatorINS_13CwiseBinaryOpINS0_13scalar_sum_opIddEEKNS_7ProductINS5_INS2_INS0_17scalar_product_opIddEEKNS_14CwiseNullaryOpINS0_18scalar_constant_opIdEEKNS_6MatrixIdLi3ELi3ELi0ELi3ELi3EEEEESD_EESC_Li0EEESC_Li0EEESJ_EENS0_10IndexBasedESL_ddE4DataC2ERKSK_, symObjAddr: 0x785C, symBinAddr: 0x1000234F0, symSize: 0x2DC }
  - { offsetInCU: 0xACCB8, offset: 0x2E0758, size: 0x8, addend: 0x0, symName: __ZN5Eigen8internal16binary_evaluatorINS_13CwiseBinaryOpINS0_13scalar_sum_opIddEEKNS_7ProductINS5_INS2_INS0_17scalar_product_opIddEEKNS_14CwiseNullaryOpINS0_18scalar_constant_opIdEEKNS_6MatrixIdLi3ELi3ELi0ELi3ELi3EEEEESD_EESC_Li0EEESC_Li0EEESJ_EENS0_10IndexBasedESL_ddE4DataC2ERKSK_, symObjAddr: 0x785C, symBinAddr: 0x1000234F0, symSize: 0x2DC }
  - { offsetInCU: 0xAEA73, offset: 0x2E2513, size: 0x8, addend: 0x0, symName: __ZNK5Eigen9DenseBaseINS_8DiagonalIKNS_13CwiseBinaryOpINS_8internal13scalar_sum_opIddEEKNS_7ProductINS_6MatrixIdLi3ELi3ELi0ELi3ELi3EEES8_Li0EEESA_EELi0EEEE5reduxIS5_EEdRKT_, symObjAddr: 0x7B38, symBinAddr: 0x1000237CC, symSize: 0x238 }
  - { offsetInCU: 0xAFCE6, offset: 0x2E3786, size: 0x8, addend: 0x0, symName: __ZNK5Eigen9DenseBaseINS_8DiagonalIKNS_13CwiseBinaryOpINS_8internal13scalar_sum_opIddEEKNS2_INS3_20scalar_difference_opIddEEKNS_7ProductINS2_INS3_17scalar_product_opIddEEKNS_14CwiseNullaryOpINS3_18scalar_constant_opIdEEKNS_6MatrixIdLi3ELi3ELi0ELi3ELi3EEEEESG_EESF_Li0EEEKNS8_ISF_SF_Li0EEEEESL_EELi0EEEE5reduxIS5_EEdRKT_, symObjAddr: 0x7D70, symBinAddr: 0x100023A04, symSize: 0x408 }
  - { offsetInCU: 0xB22C4, offset: 0x2E5D64, size: 0x8, addend: 0x0, symName: __ZN13StandardModel14matchSMGauginoER9SMGaugino, symObjAddr: 0x570C, symBinAddr: 0x10002179C, symSize: 0x4BC }
  - { offsetInCU: 0xB5033, offset: 0x2E8AD3, size: 0x8, addend: 0x0, symName: __ZN13StandardModelD0Ev, symObjAddr: 0x5BC8, symBinAddr: 0x100021C58, symSize: 0xA8 }
  - { offsetInCU: 0xB5D32, offset: 0x2E97D2, size: 0x8, addend: 0x0, symName: __ZN5Eigen8internal28conditional_aligned_new_autoIdLb1EEEPT_m.cold.1, symObjAddr: 0x8400, symBinAddr: 0x100028C3C, symSize: 0x28 }
  - { offsetInCU: 0xB715A, offset: 0x2EABFA, size: 0x8, addend: 0x0, symName: __ZN5Eigen8internal16binary_evaluatorINS_13CwiseBinaryOpINS0_20scalar_difference_opIddEEKNS_7ProductINS2_INS0_17scalar_product_opIddEEKNS_14CwiseNullaryOpINS0_18scalar_constant_opIdEEKNS_6MatrixIdLi3ELi3ELi0ELi3ELi3EEEEESD_EESC_Li0EEEKNS5_ISC_SC_Li0EEEEENS0_10IndexBasedESM_ddE4DataC2ERKSL_, symObjAddr: 0x733C, symBinAddr: 0x100022FD0, symSize: 0x264 }
  - { offsetInCU: 0xB7183, offset: 0x2EAC23, size: 0x8, addend: 0x0, symName: __ZN5Eigen8internal16binary_evaluatorINS_13CwiseBinaryOpINS0_20scalar_difference_opIddEEKNS_7ProductINS2_INS0_17scalar_product_opIddEEKNS_14CwiseNullaryOpINS0_18scalar_constant_opIdEEKNS_6MatrixIdLi3ELi3ELi0ELi3ELi3EEEEESD_EESC_Li0EEEKNS5_ISC_SC_Li0EEEEENS0_10IndexBasedESM_ddE4DataC2ERKSL_, symObjAddr: 0x733C, symBinAddr: 0x100022FD0, symSize: 0x264 }
  - { offsetInCU: 0xB71AA, offset: 0x2EAC4A, size: 0x8, addend: 0x0, symName: __ZN5Eigen8internal16binary_evaluatorINS_13CwiseBinaryOpINS0_20scalar_difference_opIddEEKNS_7ProductINS2_INS0_17scalar_product_opIddEEKNS_14CwiseNullaryOpINS0_18scalar_constant_opIdEEKNS_6MatrixIdLi3ELi3ELi0ELi3ELi3EEEEESD_EESC_Li0EEEKNS5_ISC_SC_Li0EEEEENS0_10IndexBasedESM_ddE4DataC2ERKSL_, symObjAddr: 0x733C, symBinAddr: 0x100022FD0, symSize: 0x264 }
  - { offsetInCU: 0xB71D0, offset: 0x2EAC70, size: 0x8, addend: 0x0, symName: __ZN5Eigen8internal16binary_evaluatorINS_13CwiseBinaryOpINS0_20scalar_difference_opIddEEKNS_7ProductINS2_INS0_17scalar_product_opIddEEKNS_14CwiseNullaryOpINS0_18scalar_constant_opIdEEKNS_6MatrixIdLi3ELi3ELi0ELi3ELi3EEEEESD_EESC_Li0EEEKNS5_ISC_SC_Li0EEEEENS0_10IndexBasedESM_ddE4DataC2ERKSL_, symObjAddr: 0x733C, symBinAddr: 0x100022FD0, symSize: 0x264 }
  - { offsetInCU: 0xB71F6, offset: 0x2EAC96, size: 0x8, addend: 0x0, symName: __ZN5Eigen8internal16binary_evaluatorINS_13CwiseBinaryOpINS0_20scalar_difference_opIddEEKNS_7ProductINS2_INS0_17scalar_product_opIddEEKNS_14CwiseNullaryOpINS0_18scalar_constant_opIdEEKNS_6MatrixIdLi3ELi3ELi0ELi3ELi3EEEEESD_EESC_Li0EEEKNS5_ISC_SC_Li0EEEEENS0_10IndexBasedESM_ddE4DataC2ERKSL_, symObjAddr: 0x733C, symBinAddr: 0x100022FD0, symSize: 0x264 }
  - { offsetInCU: 0xB9348, offset: 0x2ECDE8, size: 0x8, addend: 0x0, symName: _OUTLINED_FUNCTION_0, symObjAddr: 0x8428, symBinAddr: 0x100023E0C, symSize: 0x8 }
  - { offsetInCU: 0xB9360, offset: 0x2ECE00, size: 0x8, addend: 0x0, symName: _OUTLINED_FUNCTION_1, symObjAddr: 0x8430, symBinAddr: 0x100023E14, symSize: 0x8 }
  - { offsetInCU: 0xB9378, offset: 0x2ECE18, size: 0x8, addend: 0x0, symName: _OUTLINED_FUNCTION_2, symObjAddr: 0x8438, symBinAddr: 0x100023E1C, symSize: 0x8 }
  - { offsetInCU: 0x2779F, offset: 0x3145D3, size: 0x8, addend: 0x0, symName: __ZN9SMGaugino11thresholdSMER13StandardModel, symObjAddr: 0x8CC, symBinAddr: 0x1000246F0, symSize: 0x264 }
  - { offsetInCU: 0x277D1, offset: 0x314605, size: 0x8, addend: 0x0, symName: __MergedGlobals, symObjAddr: 0x2271C0, symBinAddr: 0x1000314D0, symSize: 0x0 }
  - { offsetInCU: 0x28034, offset: 0x314E68, size: 0x8, addend: 0x0, symName: __ZN9SMGaugino7matchSMERK13StandardModelRKN5Eigen6MatrixIdLi3ELi1ELi0ELi3ELi1EEEb, symObjAddr: 0xD30, symBinAddr: 0x100024954, symSize: 0x4E8 }
  - { offsetInCU: 0x2805A, offset: 0x314E8E, size: 0x8, addend: 0x0, symName: __MergedGlobals, symObjAddr: 0x2271C0, symBinAddr: 0x1000314D0, symSize: 0x0 }
  - { offsetInCU: 0x2A9BA, offset: 0x3177EE, size: 0x8, addend: 0x0, symName: __ZN9SMGaugino9matchMSSMER4MSSMb, symObjAddr: 0x12C0, symBinAddr: 0x100024E3C, symSize: 0x7D0 }
  - { offsetInCU: 0x2A9E0, offset: 0x317814, size: 0x8, addend: 0x0, symName: __MergedGlobals, symObjAddr: 0x2271C0, symBinAddr: 0x1000314D0, symSize: 0x0 }
  - { offsetInCU: 0x2A9F8, offset: 0x31782C, size: 0x8, addend: 0x0, symName: __MergedGlobals, symObjAddr: 0x2271C0, symBinAddr: 0x1000314D0, symSize: 0x0 }
  - { offsetInCU: 0x31744, offset: 0x31E578, size: 0x8, addend: 0x0, symName: __ZNK9SMGaugino4betaEv, symObjAddr: 0x1E04, symBinAddr: 0x100025980, symSize: 0x7CC }
  - { offsetInCU: 0x36EBA, offset: 0x323CEE, size: 0x8, addend: 0x0, symName: __ZN5Eigen8internal21dense_assignment_loopINS0_31generic_dense_assignment_kernelINS0_9evaluatorINS_5BlockINS_6MatrixIdLin1ELi1ELi0ELin1ELi1EEELin1ELin1ELb0EEEEENS3_IS6_EENS0_9assign_opIddEELi0EEELi4ELi0EE3runERSC_, symObjAddr: 0x2D10, symBinAddr: 0x100026490, symSize: 0x360 }
  - { offsetInCU: 0x36F6F, offset: 0x323DA3, size: 0x8, addend: 0x0, symName: __ZN5Eigen8internal21dense_assignment_loopINS0_31generic_dense_assignment_kernelINS0_9evaluatorINS_5BlockINS_6MatrixIdLin1ELi1ELi0ELin1ELi1EEELin1ELin1ELb0EEEEENS3_IS6_EENS0_9assign_opIddEELi0EEELi4ELi0EE3runERSC_, symObjAddr: 0x2D10, symBinAddr: 0x100026490, symSize: 0x360 }
  - { offsetInCU: 0x39729, offset: 0x32655D, size: 0x8, addend: 0x0, symName: __ZN9SMGauginoC2Ev, symObjAddr: 0x0, symBinAddr: 0x100023E24, symSize: 0x58 }
  - { offsetInCU: 0x398B1, offset: 0x3266E5, size: 0x8, addend: 0x0, symName: __ZN9SMGauginoC1Ev, symObjAddr: 0x58, symBinAddr: 0x100023E7C, symSize: 0x58 }
  - { offsetInCU: 0x398D3, offset: 0x326707, size: 0x8, addend: 0x0, symName: __ZN9SMGauginoC1Ev, symObjAddr: 0x58, symBinAddr: 0x100023E7C, symSize: 0x58 }
  - { offsetInCU: 0x39B1D, offset: 0x326951, size: 0x8, addend: 0x0, symName: __ZN9SMGauginoC2ERKS_, symObjAddr: 0xB0, symBinAddr: 0x100023ED4, symSize: 0xB0 }
  - { offsetInCU: 0x39DF2, offset: 0x326C26, size: 0x8, addend: 0x0, symName: __ZN9SMGauginoC1ERKS_, symObjAddr: 0x160, symBinAddr: 0x100023F84, symSize: 0xB0 }
  - { offsetInCU: 0x39E2D, offset: 0x326C61, size: 0x8, addend: 0x0, symName: __ZN9SMGauginoC1ERKS_, symObjAddr: 0x160, symBinAddr: 0x100023F84, symSize: 0xB0 }
  - { offsetInCU: 0x3A0F6, offset: 0x326F2A, size: 0x8, addend: 0x0, symName: __ZN9SMGauginoC2EdRKN5Eigen6MatrixIdLi3ELi3ELi0ELi3ELi3EEES4_S4_RKNS1_IdLi3ELi1ELi0ELi3ELi1EEEddS7_, symObjAddr: 0x210, symBinAddr: 0x100024034, symSize: 0xB8 }
  - { offsetInCU: 0x3A447, offset: 0x32727B, size: 0x8, addend: 0x0, symName: __ZN9SMGauginoC1EdRKN5Eigen6MatrixIdLi3ELi3ELi0ELi3ELi3EEES4_S4_RKNS1_IdLi3ELi1ELi0ELi3ELi1EEEddS7_, symObjAddr: 0x2C8, symBinAddr: 0x1000240EC, symSize: 0xB8 }
  - { offsetInCU: 0x3A4E8, offset: 0x32731C, size: 0x8, addend: 0x0, symName: __ZN9SMGauginoC1EdRKN5Eigen6MatrixIdLi3ELi3ELi0ELi3ELi3EEES4_S4_RKNS1_IdLi3ELi1ELi0ELi3ELi1EEEddS7_, symObjAddr: 0x2C8, symBinAddr: 0x1000240EC, symSize: 0xB8 }
  - { offsetInCU: 0x3ACEE, offset: 0x327B22, size: 0x8, addend: 0x0, symName: __ZN9SMGauginoaSERKS_, symObjAddr: 0x380, symBinAddr: 0x1000241A4, symSize: 0xC4 }
  - { offsetInCU: 0x3C7E3, offset: 0x329617, size: 0x8, addend: 0x0, symName: __ZNK9SMGaugino13displayYukawaE8yukawaID, symObjAddr: 0x444, symBinAddr: 0x100024268, symSize: 0x84 }
  - { offsetInCU: 0x3CABD, offset: 0x3298F1, size: 0x8, addend: 0x0, symName: __ZNK9SMGaugino20displayYukawaElementE8yukawaIDii, symObjAddr: 0x4C8, symBinAddr: 0x1000242EC, symSize: 0xAC }
  - { offsetInCU: 0x3CB93, offset: 0x3299C7, size: 0x8, addend: 0x0, symName: __ZNK9SMGaugino7IsCloseERS_b, symObjAddr: 0x574, symBinAddr: 0x100024398, symSize: 0x21C }
  - { offsetInCU: 0x3CB9F, offset: 0x3299D3, size: 0x8, addend: 0x0, symName: __ZNK9SMGaugino20displayYukawaElementE8yukawaIDii.cold.1, symObjAddr: 0x3070, symBinAddr: 0x100028C64, symSize: 0x24 }
  - { offsetInCU: 0x3CBCD, offset: 0x329A01, size: 0x8, addend: 0x0, symName: __ZNK9SMGaugino20displayYukawaElementE8yukawaIDii.cold.3, symObjAddr: 0x30B8, symBinAddr: 0x100028CAC, symSize: 0x24 }
  - { offsetInCU: 0x3CBFB, offset: 0x329A2F, size: 0x8, addend: 0x0, symName: __ZNK9SMGaugino20displayYukawaElementE8yukawaIDii.cold.2, symObjAddr: 0x3094, symBinAddr: 0x100028C88, symSize: 0x24 }
  - { offsetInCU: 0x3CCBF, offset: 0x329AF3, size: 0x8, addend: 0x0, symName: __ZNK9SMGaugino7IsCloseERS_b, symObjAddr: 0x574, symBinAddr: 0x100024398, symSize: 0x21C }
  - { offsetInCU: 0x3CE81, offset: 0x329CB5, size: 0x8, addend: 0x0, symName: __ZN9SMGaugino9setYukawaE8yukawaIDN5Eigen6MatrixIdLi3ELi3ELi0ELi3ELi3EEE, symObjAddr: 0x790, symBinAddr: 0x1000245B4, symSize: 0x94 }
  - { offsetInCU: 0x3E236, offset: 0x32B06A, size: 0x8, addend: 0x0, symName: __ZN9SMGaugino16setYukawaElementE8yukawaIDiid, symObjAddr: 0x824, symBinAddr: 0x100024648, symSize: 0xA8 }
  - { offsetInCU: 0x3E315, offset: 0x32B149, size: 0x8, addend: 0x0, symName: __ZN9SMGaugino11thresholdSMER13StandardModel, symObjAddr: 0x8CC, symBinAddr: 0x1000246F0, symSize: 0x264 }
  - { offsetInCU: 0x3E321, offset: 0x32B155, size: 0x8, addend: 0x0, symName: __ZN9SMGaugino16setYukawaElementE8yukawaIDiid.cold.1, symObjAddr: 0x30DC, symBinAddr: 0x100028CD0, symSize: 0x24 }
  - { offsetInCU: 0x3E34F, offset: 0x32B183, size: 0x8, addend: 0x0, symName: __ZN9SMGaugino16setYukawaElementE8yukawaIDiid.cold.3, symObjAddr: 0x3124, symBinAddr: 0x100028D18, symSize: 0x24 }
  - { offsetInCU: 0x3E37D, offset: 0x32B1B1, size: 0x8, addend: 0x0, symName: __ZN9SMGaugino16setYukawaElementE8yukawaIDiid.cold.2, symObjAddr: 0x3100, symBinAddr: 0x100028CF4, symSize: 0x24 }
  - { offsetInCU: 0x3FF40, offset: 0x32CD74, size: 0x8, addend: 0x0, symName: __ZN9SMGauginoD1Ev, symObjAddr: 0x1A90, symBinAddr: 0x10002560C, symSize: 0x4 }
  - { offsetInCU: 0x400BF, offset: 0x32CEF3, size: 0x8, addend: 0x0, symName: __ZNK9SMGaugino7displayEv, symObjAddr: 0x1A94, symBinAddr: 0x100025610, symSize: 0x154 }
  - { offsetInCU: 0x4044D, offset: 0x32D281, size: 0x8, addend: 0x0, symName: __ZN9SMGaugino3setERKN5Eigen6MatrixIdLin1ELi1ELi0ELin1ELi1EEE, symObjAddr: 0x1BE8, symBinAddr: 0x100025764, symSize: 0x21C }
  - { offsetInCU: 0x4071E, offset: 0x32D552, size: 0x8, addend: 0x0, symName: __ZNK9SMGaugino4betaEv, symObjAddr: 0x1E04, symBinAddr: 0x100025980, symSize: 0x7CC }
  - { offsetInCU: 0x4072A, offset: 0x32D55E, size: 0x8, addend: 0x0, symName: __ZN9SMGaugino3setERKN5Eigen6MatrixIdLin1ELi1ELi0ELin1ELi1EEE.cold.1, symObjAddr: 0x3148, symBinAddr: 0x100028D3C, symSize: 0x24 }
  - { offsetInCU: 0x40759, offset: 0x32D58D, size: 0x8, addend: 0x0, symName: __ZN9SMGaugino3setERKN5Eigen6MatrixIdLin1ELi1ELi0ELin1ELi1EEE.cold.7, symObjAddr: 0x3220, symBinAddr: 0x100028E14, symSize: 0x24 }
  - { offsetInCU: 0x40788, offset: 0x32D5BC, size: 0x8, addend: 0x0, symName: __ZN9SMGaugino3setERKN5Eigen6MatrixIdLin1ELi1ELi0ELin1ELi1EEE.cold.6, symObjAddr: 0x31FC, symBinAddr: 0x100028DF0, symSize: 0x24 }
  - { offsetInCU: 0x407B7, offset: 0x32D5EB, size: 0x8, addend: 0x0, symName: __ZN9SMGaugino3setERKN5Eigen6MatrixIdLin1ELi1ELi0ELin1ELi1EEE.cold.2, symObjAddr: 0x316C, symBinAddr: 0x100028D60, symSize: 0x24 }
  - { offsetInCU: 0x407E6, offset: 0x32D61A, size: 0x8, addend: 0x0, symName: __ZN9SMGaugino3setERKN5Eigen6MatrixIdLin1ELi1ELi0ELin1ELi1EEE.cold.4, symObjAddr: 0x31B4, symBinAddr: 0x100028DA8, symSize: 0x24 }
  - { offsetInCU: 0x40815, offset: 0x32D649, size: 0x8, addend: 0x0, symName: __ZN9SMGaugino3setERKN5Eigen6MatrixIdLin1ELi1ELi0ELin1ELi1EEE.cold.5, symObjAddr: 0x31D8, symBinAddr: 0x100028DCC, symSize: 0x24 }
  - { offsetInCU: 0x40844, offset: 0x32D678, size: 0x8, addend: 0x0, symName: __ZN9SMGaugino3setERKN5Eigen6MatrixIdLin1ELi1ELi0ELin1ELi1EEE.cold.3, symObjAddr: 0x3190, symBinAddr: 0x100028D84, symSize: 0x24 }
  - { offsetInCU: 0x41C19, offset: 0x32EA4D, size: 0x8, addend: 0x0, symName: __ZN5Eigen16CommaInitializerINS_6MatrixIdLin1ELi1ELi0ELin1ELi1EEEEcmIS2_EERS3_RKNS_9DenseBaseIT_EE, symObjAddr: 0x25D0, symBinAddr: 0x10002614C, symSize: 0x260 }
  - { offsetInCU: 0x42276, offset: 0x32F0AA, size: 0x8, addend: 0x0, symName: __ZN5Eigen16CommaInitializerINS_6MatrixIdLin1ELi1ELi0ELin1ELi1EEEED1Ev, symObjAddr: 0x2830, symBinAddr: 0x1000263AC, symSize: 0x5C }
  - { offsetInCU: 0x4228B, offset: 0x32F0BF, size: 0x8, addend: 0x0, symName: __ZN5Eigen16CommaInitializerINS_6MatrixIdLin1ELi1ELi0ELin1ELi1EEEED1Ev, symObjAddr: 0x2830, symBinAddr: 0x1000263AC, symSize: 0x5C }
  - { offsetInCU: 0x427C4, offset: 0x32F5F8, size: 0x8, addend: 0x0, symName: __ZN5Eigen16CommaInitializerINS_6MatrixIdLin1ELi1ELi0ELin1ELi1EEEEcmIS2_EERS3_RKNS_9DenseBaseIT_EE.cold.1, symObjAddr: 0x3244, symBinAddr: 0x100028E38, symSize: 0x28 }
  - { offsetInCU: 0x427DC, offset: 0x32F610, size: 0x8, addend: 0x0, symName: __ZN5Eigen16CommaInitializerINS_6MatrixIdLin1ELi1ELi0ELin1ELi1EEEEcmIS2_EERS3_RKNS_9DenseBaseIT_EE.cold.3, symObjAddr: 0x3294, symBinAddr: 0x100028E88, symSize: 0x28 }
  - { offsetInCU: 0x42835, offset: 0x32F669, size: 0x8, addend: 0x0, symName: __ZN5Eigen16CommaInitializerINS_6MatrixIdLin1ELi1ELi0ELin1ELi1EEEEcmIS2_EERS3_RKNS_9DenseBaseIT_EE.cold.5, symObjAddr: 0x32E4, symBinAddr: 0x100028ED8, symSize: 0x28 }
  - { offsetInCU: 0x4284D, offset: 0x32F681, size: 0x8, addend: 0x0, symName: __ZN5Eigen16CommaInitializerINS_6MatrixIdLin1ELi1ELi0ELin1ELi1EEEEcmIS2_EERS3_RKNS_9DenseBaseIT_EE.cold.4, symObjAddr: 0x32BC, symBinAddr: 0x100028EB0, symSize: 0x28 }
  - { offsetInCU: 0x428FB, offset: 0x32F72F, size: 0x8, addend: 0x0, symName: __ZN5Eigen16CommaInitializerINS_6MatrixIdLin1ELi1ELi0ELin1ELi1EEEEcmIS2_EERS3_RKNS_9DenseBaseIT_EE.cold.6, symObjAddr: 0x330C, symBinAddr: 0x100028F00, symSize: 0x28 }
  - { offsetInCU: 0x42913, offset: 0x32F747, size: 0x8, addend: 0x0, symName: __ZN5Eigen16CommaInitializerINS_6MatrixIdLin1ELi1ELi0ELin1ELi1EEEEcmIS2_EERS3_RKNS_9DenseBaseIT_EE.cold.2, symObjAddr: 0x326C, symBinAddr: 0x100028E60, symSize: 0x28 }
  - { offsetInCU: 0x429C2, offset: 0x32F7F6, size: 0x8, addend: 0x0, symName: __ZN9SMGaugino13runtoMgauginoEv, symObjAddr: 0x288C, symBinAddr: 0x100026408, symSize: 0x84 }
  - { offsetInCU: 0x42A3A, offset: 0x32F86E, size: 0x8, addend: 0x0, symName: __ZN9SMGauginoD0Ev, symObjAddr: 0x2910, symBinAddr: 0x10002648C, symSize: 0x4 }
  - { offsetInCU: 0x42E5A, offset: 0x32FC8E, size: 0x8, addend: 0x0, symName: __ZN5Eigen8internal28conditional_aligned_new_autoIdLb1EEEPT_m.cold.1, symObjAddr: 0x3334, symBinAddr: 0x100028F28, symSize: 0x28 }
  - { offsetInCU: 0x43165, offset: 0x32FF99, size: 0x8, addend: 0x0, symName: _OUTLINED_FUNCTION_0, symObjAddr: 0x335C, symBinAddr: 0x1000267F0, symSize: 0x8 }
  - { offsetInCU: 0x4317D, offset: 0x32FFB1, size: 0x8, addend: 0x0, symName: _OUTLINED_FUNCTION_1, symObjAddr: 0x3364, symBinAddr: 0x1000267F8, symSize: 0x8 }
  - { offsetInCU: 0x43195, offset: 0x32FFC9, size: 0x8, addend: 0x0, symName: _OUTLINED_FUNCTION_2, symObjAddr: 0x336C, symBinAddr: 0x100026800, symSize: 0x8 }
  - { offsetInCU: 0x5D, offset: 0x330047, size: 0x8, addend: 0x0, symName: __ZNSt3__1L19piecewise_constructE, symObjAddr: 0x13C1, symBinAddr: 0x10002B900, symSize: 0x0 }
  - { offsetInCU: 0x92B2, offset: 0x33929C, size: 0x8, addend: 0x0, symName: __ZN12SMParametersC2Ev, symObjAddr: 0x0, symBinAddr: 0x100026808, symSize: 0x56C }
  - { offsetInCU: 0xBD7E, offset: 0x33BD68, size: 0x8, addend: 0x0, symName: __ZNSt3__112__hash_tableINS_17__hash_value_typeINS_12basic_stringIcNS_11char_traitsIcEENS_9allocatorIcEEEEdEENS_22__unordered_map_hasherIS7_S8_NS_4hashIS7_EENS_8equal_toIS7_EELb1EEENS_21__unordered_map_equalIS7_S8_SD_SB_Lb1EEENS5_IS8_EEE25__emplace_unique_key_argsIS7_JRKNS_21piecewise_construct_tENS_5tupleIJOS7_EEENSN_IJEEEEEENS_4pairINS_15__hash_iteratorIPNS_11__hash_nodeIS8_PvEEEEbEERKT_DpOT0_, symObjAddr: 0x704, symBinAddr: 0x100026ED8, symSize: 0x45C }
  - { offsetInCU: 0xC642, offset: 0x33C62C, size: 0x8, addend: 0x0, symName: __ZNSt3__113unordered_mapINS_12basic_stringIcNS_11char_traitsIcEENS_9allocatorIcEEEEdNS_4hashIS6_EENS_8equal_toIS6_EENS4_INS_4pairIKS6_dEEEEED1B7v160006Ev, symObjAddr: 0x56C, symBinAddr: 0x100026D74, symSize: 0x68 }
  - { offsetInCU: 0xCCC9, offset: 0x33CCB3, size: 0x8, addend: 0x0, symName: __ZN12SMParametersC1Ev, symObjAddr: 0x5D4, symBinAddr: 0x100026DDC, symSize: 0x4 }
  - { offsetInCU: 0xCCF7, offset: 0x33CCE1, size: 0x8, addend: 0x0, symName: __ZN12SMParametersC1Ev, symObjAddr: 0x5D4, symBinAddr: 0x100026DDC, symSize: 0x4 }
  - { offsetInCU: 0xCEE8, offset: 0x33CED2, size: 0x8, addend: 0x0, symName: __ZN12SMParameters15calcEWPotentialEd, symObjAddr: 0x5D8, symBinAddr: 0x100026DE0, symSize: 0xF8 }
  - { offsetInCU: 0xD7FF, offset: 0x33D7E9, size: 0x8, addend: 0x0, symName: __ZNSt3__121__murmur2_or_cityhashImLm64EEclEPKvm, symObjAddr: 0xBAC, symBinAddr: 0x100027380, symSize: 0x49C }
  - { offsetInCU: 0xE179, offset: 0x33E163, size: 0x8, addend: 0x0, symName: __ZNSt3__112__hash_tableINS_17__hash_value_typeINS_12basic_stringIcNS_11char_traitsIcEENS_9allocatorIcEEEEdEENS_22__unordered_map_hasherIS7_S8_NS_4hashIS7_EENS_8equal_toIS7_EELb1EEENS_21__unordered_map_equalIS7_S8_SD_SB_Lb1EEENS5_IS8_EEE11__do_rehashILb1EEEvm, symObjAddr: 0x1048, symBinAddr: 0x10002781C, symSize: 0x1AC }
  - { offsetInCU: 0xE5E8, offset: 0x33E5D2, size: 0x8, addend: 0x0, symName: __ZNSt3__110unique_ptrINS_11__hash_nodeINS_17__hash_value_typeINS_12basic_stringIcNS_11char_traitsIcEENS_9allocatorIcEEEEdEEPvEENS_22__hash_node_destructorINS6_ISB_EEEEED1B7v160006Ev, symObjAddr: 0xB60, symBinAddr: 0x100027334, symSize: 0x4C }
...
